	.file	"mahjong.c"
 # GNU C99 (Rev6, Built by MSYS2 project) version 13.1.0 (x86_64-w64-mingw32)
 #	compiled by GNU C version 13.1.0, GMP version 6.2.1, MPFR version 4.2.0-p4, MPC version 1.3.1, isl version isl-0.26-GMP

 # warning: MPFR header version 4.2.0-p4 differs from library version 4.2.0-p9.
 # GGC heuristics: --param ggc-min-expand=100 --param ggc-min-heapsize=131072
 # options passed: -march=znver4 -O3 -std=c99 -fno-strict-aliasing -ffreestanding
	.text
	.p2align 4
	.globl	compare_f32
	.def	compare_f32;	.scl	2;	.type	32;	.endef
	.seh_proc	compare_f32
compare_f32:
	.seh_endprologue
 # mahjong.c:52:     if ((f1 - precision) < f2) {
	vmovsd	.LC0(%rip), %xmm2	 #, tmp89
 # mahjong.c:53:         return -1;
	movl	$-1, %eax	 #, <retval>
 # mahjong.c:52:     if ((f1 - precision) < f2) {
	vsubsd	%xmm2, %xmm0, %xmm3	 # tmp89, f1, tmp88
 # mahjong.c:52:     if ((f1 - precision) < f2) {
	vcomisd	%xmm3, %xmm1	 # tmp88, f2
	ja	.L1	 #,
 # mahjong.c:54:     } else if ((f1 + precision) > f2) {
	xorl	%eax, %eax	 # <retval>
 # mahjong.c:54:     } else if ((f1 + precision) > f2) {
	vaddsd	%xmm2, %xmm0, %xmm0	 # tmp89, f1, tmp90
 # mahjong.c:54:     } else if ((f1 + precision) > f2) {
	vcomisd	%xmm1, %xmm0	 # f2, tmp90
	seta	%al	 #, <retval>
.L1:
 # mahjong.c:59: }
	ret	
	.seh_endproc
	.p2align 4
	.globl	cos
	.def	cos;	.scl	2;	.type	32;	.endef
	.seh_proc	cos
cos:
	.seh_endprologue
 # mahjong.c:63:     while (x > M_PI)
	vmovsd	.LC1(%rip), %xmm2	 #, tmp141
	vmovsd	.LC2(%rip), %xmm1	 #, tmp142
	vcomisd	%xmm2, %xmm0	 # tmp141, x
	jbe	.L23	 #,
	.p2align 4
	.p2align 3
.L8:
 # mahjong.c:64:         x -= 2.0 * M_PI;
	vsubsd	%xmm1, %xmm0, %xmm0	 # tmp142, x, x
 # mahjong.c:63:     while (x > M_PI)
	vcomisd	%xmm2, %xmm0	 # tmp141, x
	ja	.L8	 #,
.L9:
 # mahjong.c:71:     if (x > M_PI / 2)
	vcomisd	.LC4(%rip), %xmm0	 #, x
	jbe	.L24	 #,
	.p2align 4
	.p2align 3
.L26:
 # mahjong.c:73:         x = M_PI - x;
	vsubsd	%xmm0, %xmm2, %xmm0	 # x, tmp141, x
.L14:
 # mahjong.c:85:         (1.0 - (x*x/30.0)));
	vmovsd	.LC7(%rip), %xmm1	 #, tmp116
 # mahjong.c:83:         1.0 - (x*x/2.0) *
	vmulsd	%xmm0, %xmm0, %xmm0	 # x, x, _10
 # mahjong.c:85:         (1.0 - (x*x/30.0)));
	vdivsd	.LC6(%rip), %xmm0, %xmm2	 #, _10, tmp113
 # mahjong.c:84:         (1.0 - (x*x/12.0) *
	vdivsd	.LC8(%rip), %xmm0, %xmm3	 #, _10, tmp117
 # mahjong.c:85:         (1.0 - (x*x/30.0)));
	vsubsd	%xmm2, %xmm1, %xmm2	 # tmp113, tmp116, tmp115
 # mahjong.c:83:         1.0 - (x*x/2.0) *
	vmulsd	.LC9(%rip), %xmm0, %xmm0	 #, _10, tmp122
 # mahjong.c:84:         (1.0 - (x*x/12.0) *
	vmulsd	%xmm3, %xmm2, %xmm2	 # tmp117, tmp115, tmp119
 # mahjong.c:84:         (1.0 - (x*x/12.0) *
	vsubsd	%xmm2, %xmm1, %xmm2	 # tmp119, tmp116, tmp120
 # mahjong.c:83:         1.0 - (x*x/2.0) *
	vmulsd	%xmm0, %xmm2, %xmm0	 # tmp122, tmp120, tmp124
 # mahjong.c:82:     double result =
	vsubsd	%xmm0, %xmm1, %xmm0	 # tmp124, tmp116, result
 # mahjong.c:87:     return negate ? -result : result;
	vxorpd	.LC10(%rip), %xmm0, %xmm0	 #, result, <retval>
 # mahjong.c:88: }
	ret	
	.p2align 4
	.p2align 3
.L23:
 # mahjong.c:66:     while (x < -M_PI)
	vmovsd	.LC3(%rip), %xmm3	 #, tmp143
	vcomisd	%xmm0, %xmm3	 # x, tmp143
	jbe	.L9	 #,
	.p2align 4
	.p2align 3
.L11:
 # mahjong.c:67:         x += 2.0 * M_PI;
	vaddsd	%xmm1, %xmm0, %xmm0	 # tmp142, x, x
 # mahjong.c:66:     while (x < -M_PI)
	vcomisd	%xmm0, %xmm3	 # x, tmp143
	ja	.L11	 #,
 # mahjong.c:71:     if (x > M_PI / 2)
	vcomisd	.LC4(%rip), %xmm0	 #, x
	ja	.L26	 #,
.L24:
 # mahjong.c:76:     else if (x < -M_PI / 2)
	vmovsd	.LC5(%rip), %xmm1	 #, tmp110
	vcomisd	%xmm0, %xmm1	 # x, tmp110
	jbe	.L25	 #,
 # mahjong.c:78:         x = -M_PI - x;
	vmovsd	.LC3(%rip), %xmm1	 #, tmp111
	vsubsd	%xmm0, %xmm1, %xmm0	 # x, tmp111, x
	jmp	.L14	 #
	.p2align 4
	.p2align 3
.L25:
 # mahjong.c:85:         (1.0 - (x*x/30.0)));
	vmovsd	.LC7(%rip), %xmm1	 #, tmp131
 # mahjong.c:83:         1.0 - (x*x/2.0) *
	vmulsd	%xmm0, %xmm0, %xmm0	 # x, x, _37
 # mahjong.c:85:         (1.0 - (x*x/30.0)));
	vdivsd	.LC6(%rip), %xmm0, %xmm2	 #, _37, tmp128
 # mahjong.c:84:         (1.0 - (x*x/12.0) *
	vdivsd	.LC8(%rip), %xmm0, %xmm3	 #, _37, tmp132
 # mahjong.c:85:         (1.0 - (x*x/30.0)));
	vsubsd	%xmm2, %xmm1, %xmm2	 # tmp128, tmp131, tmp130
 # mahjong.c:83:         1.0 - (x*x/2.0) *
	vmulsd	.LC9(%rip), %xmm0, %xmm0	 #, _37, tmp137
 # mahjong.c:84:         (1.0 - (x*x/12.0) *
	vmulsd	%xmm3, %xmm2, %xmm2	 # tmp132, tmp130, tmp134
 # mahjong.c:84:         (1.0 - (x*x/12.0) *
	vsubsd	%xmm2, %xmm1, %xmm2	 # tmp134, tmp131, tmp135
 # mahjong.c:83:         1.0 - (x*x/2.0) *
	vmulsd	%xmm0, %xmm2, %xmm0	 # tmp137, tmp135, tmp139
 # mahjong.c:82:     double result =
	vsubsd	%xmm0, %xmm1, %xmm0	 # tmp139, tmp131, <retval>
 # mahjong.c:88: }
	ret	
	.seh_endproc
	.p2align 4
	.globl	sin
	.def	sin;	.scl	2;	.type	32;	.endef
	.seh_proc	sin
sin:
	.seh_endprologue
 # mahjong.c:92:     return cos(x-M_PI_2);
	vmovsd	.LC4(%rip), %xmm4	 #, tmp146
 # mahjong.c:63:     while (x > M_PI)
	vmovsd	.LC1(%rip), %xmm2	 #, tmp143
	vmovsd	.LC2(%rip), %xmm1	 #, tmp144
 # mahjong.c:92:     return cos(x-M_PI_2);
	vsubsd	%xmm4, %xmm0, %xmm0	 # tmp146, tmp147, x
 # mahjong.c:63:     while (x > M_PI)
	vcomisd	%xmm2, %xmm0	 # tmp143, x
	jbe	.L45	 #,
	.p2align 4
	.p2align 3
.L30:
 # mahjong.c:64:         x -= 2.0 * M_PI;
	vsubsd	%xmm1, %xmm0, %xmm0	 # tmp144, x, x
 # mahjong.c:63:     while (x > M_PI)
	vcomisd	%xmm2, %xmm0	 # tmp143, x
	ja	.L30	 #,
.L31:
 # mahjong.c:71:     if (x > M_PI / 2)
	vcomisd	%xmm4, %xmm0	 # tmp146, x
	jbe	.L46	 #,
	.p2align 4
	.p2align 3
.L48:
 # mahjong.c:73:         x = M_PI - x;
	vsubsd	%xmm0, %xmm2, %xmm0	 # x, tmp143, x
.L36:
 # mahjong.c:85:         (1.0 - (x*x/30.0)));
	vmovsd	.LC7(%rip), %xmm1	 #, tmp118
 # mahjong.c:83:         1.0 - (x*x/2.0) *
	vmulsd	%xmm0, %xmm0, %xmm0	 # x, x, _5
 # mahjong.c:85:         (1.0 - (x*x/30.0)));
	vdivsd	.LC6(%rip), %xmm0, %xmm2	 #, _5, tmp115
 # mahjong.c:84:         (1.0 - (x*x/12.0) *
	vdivsd	.LC8(%rip), %xmm0, %xmm3	 #, _5, tmp119
 # mahjong.c:85:         (1.0 - (x*x/30.0)));
	vsubsd	%xmm2, %xmm1, %xmm2	 # tmp115, tmp118, tmp117
 # mahjong.c:83:         1.0 - (x*x/2.0) *
	vmulsd	.LC9(%rip), %xmm0, %xmm0	 #, _5, tmp124
 # mahjong.c:84:         (1.0 - (x*x/12.0) *
	vmulsd	%xmm3, %xmm2, %xmm2	 # tmp119, tmp117, tmp121
 # mahjong.c:84:         (1.0 - (x*x/12.0) *
	vsubsd	%xmm2, %xmm1, %xmm2	 # tmp121, tmp118, tmp122
 # mahjong.c:83:         1.0 - (x*x/2.0) *
	vmulsd	%xmm0, %xmm2, %xmm0	 # tmp124, tmp122, tmp126
 # mahjong.c:82:     double result =
	vsubsd	%xmm0, %xmm1, %xmm0	 # tmp126, tmp118, result
 # mahjong.c:87:     return negate ? -result : result;
	vxorpd	.LC10(%rip), %xmm0, %xmm0	 #, result, <retval>
 # mahjong.c:93: }
	ret	
	.p2align 4
	.p2align 3
.L45:
 # mahjong.c:66:     while (x < -M_PI)
	vmovsd	.LC3(%rip), %xmm3	 #, tmp145
	vcomisd	%xmm0, %xmm3	 # x, tmp145
	jbe	.L31	 #,
	.p2align 4
	.p2align 3
.L33:
 # mahjong.c:67:         x += 2.0 * M_PI;
	vaddsd	%xmm1, %xmm0, %xmm0	 # tmp144, x, x
 # mahjong.c:66:     while (x < -M_PI)
	vcomisd	%xmm0, %xmm3	 # x, tmp145
	ja	.L33	 #,
 # mahjong.c:71:     if (x > M_PI / 2)
	vcomisd	%xmm4, %xmm0	 # tmp146, x
	ja	.L48	 #,
.L46:
 # mahjong.c:76:     else if (x < -M_PI / 2)
	vmovsd	.LC5(%rip), %xmm1	 #, tmp112
	vcomisd	%xmm0, %xmm1	 # x, tmp112
	jbe	.L47	 #,
 # mahjong.c:78:         x = -M_PI - x;
	vmovsd	.LC3(%rip), %xmm1	 #, tmp113
	vsubsd	%xmm0, %xmm1, %xmm0	 # x, tmp113, x
	jmp	.L36	 #
	.p2align 4
	.p2align 3
.L47:
 # mahjong.c:85:         (1.0 - (x*x/30.0)));
	vmovsd	.LC7(%rip), %xmm1	 #, tmp133
 # mahjong.c:83:         1.0 - (x*x/2.0) *
	vmulsd	%xmm0, %xmm0, %xmm0	 # x, x, _38
 # mahjong.c:85:         (1.0 - (x*x/30.0)));
	vdivsd	.LC6(%rip), %xmm0, %xmm2	 #, _38, tmp130
 # mahjong.c:84:         (1.0 - (x*x/12.0) *
	vdivsd	.LC8(%rip), %xmm0, %xmm3	 #, _38, tmp134
 # mahjong.c:85:         (1.0 - (x*x/30.0)));
	vsubsd	%xmm2, %xmm1, %xmm2	 # tmp130, tmp133, tmp132
 # mahjong.c:83:         1.0 - (x*x/2.0) *
	vmulsd	.LC9(%rip), %xmm0, %xmm0	 #, _38, tmp139
 # mahjong.c:84:         (1.0 - (x*x/12.0) *
	vmulsd	%xmm3, %xmm2, %xmm2	 # tmp134, tmp132, tmp136
 # mahjong.c:84:         (1.0 - (x*x/12.0) *
	vsubsd	%xmm2, %xmm1, %xmm2	 # tmp136, tmp133, tmp137
 # mahjong.c:83:         1.0 - (x*x/2.0) *
	vmulsd	%xmm0, %xmm2, %xmm0	 # tmp139, tmp137, tmp141
 # mahjong.c:82:     double result =
	vsubsd	%xmm0, %xmm1, %xmm0	 # tmp141, tmp133, <retval>
 # mahjong.c:93: }
	ret	
	.seh_endproc
	.p2align 4
	.globl	cosf
	.def	cosf;	.scl	2;	.type	32;	.endef
	.seh_proc	cosf
cosf:
	.seh_endprologue
 # mahjong.c:63:     while (x > M_PI)
	vmovsd	.LC1(%rip), %xmm2	 #, tmp143
	vmovsd	.LC2(%rip), %xmm1	 #, tmp144
 # mahjong.c:96:     return (f32)cos((double)x);
	vcvtss2sd	%xmm0, %xmm0, %xmm0	 # tmp146, x
 # mahjong.c:63:     while (x > M_PI)
	vcomisd	%xmm2, %xmm0	 # tmp143, x
	jbe	.L67	 #,
	.p2align 4
	.p2align 3
.L52:
 # mahjong.c:64:         x -= 2.0 * M_PI;
	vsubsd	%xmm1, %xmm0, %xmm0	 # tmp144, x, x
 # mahjong.c:63:     while (x > M_PI)
	vcomisd	%xmm2, %xmm0	 # tmp143, x
	ja	.L52	 #,
.L53:
 # mahjong.c:71:     if (x > M_PI / 2)
	vcomisd	.LC4(%rip), %xmm0	 #, x
	jbe	.L68	 #,
	.p2align 4
	.p2align 3
.L71:
 # mahjong.c:73:         x = M_PI - x;
	vsubsd	%xmm0, %xmm2, %xmm0	 # x, tmp143, x
.L58:
 # mahjong.c:85:         (1.0 - (x*x/30.0)));
	vmovsd	.LC7(%rip), %xmm1	 #, tmp118
 # mahjong.c:83:         1.0 - (x*x/2.0) *
	vmulsd	%xmm0, %xmm0, %xmm0	 # x, x, _6
 # mahjong.c:85:         (1.0 - (x*x/30.0)));
	vdivsd	.LC6(%rip), %xmm0, %xmm2	 #, _6, tmp115
 # mahjong.c:84:         (1.0 - (x*x/12.0) *
	vdivsd	.LC8(%rip), %xmm0, %xmm3	 #, _6, tmp119
 # mahjong.c:85:         (1.0 - (x*x/30.0)));
	vsubsd	%xmm2, %xmm1, %xmm2	 # tmp115, tmp118, tmp117
 # mahjong.c:83:         1.0 - (x*x/2.0) *
	vmulsd	.LC9(%rip), %xmm0, %xmm0	 #, _6, tmp124
 # mahjong.c:84:         (1.0 - (x*x/12.0) *
	vmulsd	%xmm3, %xmm2, %xmm2	 # tmp119, tmp117, tmp121
 # mahjong.c:84:         (1.0 - (x*x/12.0) *
	vsubsd	%xmm2, %xmm1, %xmm2	 # tmp121, tmp118, tmp122
 # mahjong.c:83:         1.0 - (x*x/2.0) *
	vmulsd	%xmm0, %xmm2, %xmm0	 # tmp124, tmp122, tmp126
 # mahjong.c:82:     double result =
	vsubsd	%xmm0, %xmm1, %xmm0	 # tmp126, tmp118, result
 # mahjong.c:87:     return negate ? -result : result;
	vxorpd	.LC10(%rip), %xmm0, %xmm0	 #, result, iftmp.0_24
 # mahjong.c:96:     return (f32)cos((double)x);
	vcvtsd2ss	%xmm0, %xmm0, %xmm0	 # iftmp.0_24, tmp114
 # mahjong.c:97: }
	ret	
	.p2align 4
	.p2align 3
.L67:
 # mahjong.c:66:     while (x < -M_PI)
	vmovsd	.LC3(%rip), %xmm3	 #, tmp145
	vcomisd	%xmm0, %xmm3	 # x, tmp145
	jbe	.L53	 #,
	.p2align 4
	.p2align 3
.L55:
 # mahjong.c:67:         x += 2.0 * M_PI;
	vaddsd	%xmm1, %xmm0, %xmm0	 # tmp144, x, x
 # mahjong.c:66:     while (x < -M_PI)
	vcomisd	%xmm0, %xmm3	 # x, tmp145
	ja	.L55	 #,
 # mahjong.c:71:     if (x > M_PI / 2)
	vcomisd	.LC4(%rip), %xmm0	 #, x
	ja	.L71	 #,
.L68:
 # mahjong.c:76:     else if (x < -M_PI / 2)
	vmovsd	.LC5(%rip), %xmm1	 #, tmp112
	vcomisd	%xmm0, %xmm1	 # x, tmp112
	jbe	.L69	 #,
 # mahjong.c:78:         x = -M_PI - x;
	vmovsd	.LC3(%rip), %xmm1	 #, tmp113
	vsubsd	%xmm0, %xmm1, %xmm0	 # x, tmp113, x
	jmp	.L58	 #
	.p2align 4
	.p2align 3
.L69:
 # mahjong.c:85:         (1.0 - (x*x/30.0)));
	vmovsd	.LC7(%rip), %xmm1	 #, tmp133
 # mahjong.c:83:         1.0 - (x*x/2.0) *
	vmulsd	%xmm0, %xmm0, %xmm0	 # x, x, _39
 # mahjong.c:85:         (1.0 - (x*x/30.0)));
	vdivsd	.LC6(%rip), %xmm0, %xmm2	 #, _39, tmp130
 # mahjong.c:84:         (1.0 - (x*x/12.0) *
	vdivsd	.LC8(%rip), %xmm0, %xmm3	 #, _39, tmp134
 # mahjong.c:85:         (1.0 - (x*x/30.0)));
	vsubsd	%xmm2, %xmm1, %xmm2	 # tmp130, tmp133, tmp132
 # mahjong.c:83:         1.0 - (x*x/2.0) *
	vmulsd	.LC9(%rip), %xmm0, %xmm0	 #, _39, tmp139
 # mahjong.c:84:         (1.0 - (x*x/12.0) *
	vmulsd	%xmm3, %xmm2, %xmm2	 # tmp134, tmp132, tmp136
 # mahjong.c:84:         (1.0 - (x*x/12.0) *
	vsubsd	%xmm2, %xmm1, %xmm2	 # tmp136, tmp133, tmp137
 # mahjong.c:83:         1.0 - (x*x/2.0) *
	vmulsd	%xmm0, %xmm2, %xmm0	 # tmp139, tmp137, tmp141
 # mahjong.c:82:     double result =
	vsubsd	%xmm0, %xmm1, %xmm0	 # tmp141, tmp133, iftmp.0_24
 # mahjong.c:96:     return (f32)cos((double)x);
	vcvtsd2ss	%xmm0, %xmm0, %xmm0	 # iftmp.0_24, tmp114
 # mahjong.c:97: }
	ret	
	.seh_endproc
	.p2align 4
	.globl	sinf
	.def	sinf;	.scl	2;	.type	32;	.endef
	.seh_proc	sinf
sinf:
	.seh_endprologue
 # mahjong.c:92:     return cos(x-M_PI_2);
	vmovsd	.LC4(%rip), %xmm4	 #, tmp149
 # mahjong.c:63:     while (x > M_PI)
	vmovsd	.LC1(%rip), %xmm2	 #, tmp146
	vmovsd	.LC2(%rip), %xmm1	 #, tmp147
 # mahjong.c:100:     return (f32)sin((double)x);
	vcvtss2sd	%xmm0, %xmm0, %xmm0	 # tmp150, tmp105
 # mahjong.c:92:     return cos(x-M_PI_2);
	vsubsd	%xmm4, %xmm0, %xmm0	 # tmp149, tmp105, x
 # mahjong.c:63:     while (x > M_PI)
	vcomisd	%xmm2, %xmm0	 # tmp146, x
	jbe	.L90	 #,
	.p2align 4
	.p2align 3
.L75:
 # mahjong.c:64:         x -= 2.0 * M_PI;
	vsubsd	%xmm1, %xmm0, %xmm0	 # tmp147, x, x
 # mahjong.c:63:     while (x > M_PI)
	vcomisd	%xmm2, %xmm0	 # tmp146, x
	ja	.L75	 #,
.L76:
 # mahjong.c:71:     if (x > M_PI / 2)
	vcomisd	%xmm4, %xmm0	 # tmp149, x
	jbe	.L91	 #,
	.p2align 4
	.p2align 3
.L94:
 # mahjong.c:73:         x = M_PI - x;
	vsubsd	%xmm0, %xmm2, %xmm0	 # x, tmp146, x
.L81:
 # mahjong.c:85:         (1.0 - (x*x/30.0)));
	vmovsd	.LC7(%rip), %xmm1	 #, tmp121
 # mahjong.c:83:         1.0 - (x*x/2.0) *
	vmulsd	%xmm0, %xmm0, %xmm0	 # x, x, _7
 # mahjong.c:85:         (1.0 - (x*x/30.0)));
	vdivsd	.LC6(%rip), %xmm0, %xmm2	 #, _7, tmp118
 # mahjong.c:84:         (1.0 - (x*x/12.0) *
	vdivsd	.LC8(%rip), %xmm0, %xmm3	 #, _7, tmp122
 # mahjong.c:85:         (1.0 - (x*x/30.0)));
	vsubsd	%xmm2, %xmm1, %xmm2	 # tmp118, tmp121, tmp120
 # mahjong.c:83:         1.0 - (x*x/2.0) *
	vmulsd	.LC9(%rip), %xmm0, %xmm0	 #, _7, tmp127
 # mahjong.c:84:         (1.0 - (x*x/12.0) *
	vmulsd	%xmm3, %xmm2, %xmm2	 # tmp122, tmp120, tmp124
 # mahjong.c:84:         (1.0 - (x*x/12.0) *
	vsubsd	%xmm2, %xmm1, %xmm2	 # tmp124, tmp121, tmp125
 # mahjong.c:83:         1.0 - (x*x/2.0) *
	vmulsd	%xmm0, %xmm2, %xmm0	 # tmp127, tmp125, tmp129
 # mahjong.c:82:     double result =
	vsubsd	%xmm0, %xmm1, %xmm0	 # tmp129, tmp121, result
 # mahjong.c:87:     return negate ? -result : result;
	vxorpd	.LC10(%rip), %xmm0, %xmm0	 #, result, iftmp.0_25
 # mahjong.c:100:     return (f32)sin((double)x);
	vcvtsd2ss	%xmm0, %xmm0, %xmm0	 # iftmp.0_25, tmp117
 # mahjong.c:101: }
	ret	
	.p2align 4
	.p2align 3
.L90:
 # mahjong.c:66:     while (x < -M_PI)
	vmovsd	.LC3(%rip), %xmm3	 #, tmp148
	vcomisd	%xmm0, %xmm3	 # x, tmp148
	jbe	.L76	 #,
	.p2align 4
	.p2align 3
.L78:
 # mahjong.c:67:         x += 2.0 * M_PI;
	vaddsd	%xmm1, %xmm0, %xmm0	 # tmp147, x, x
 # mahjong.c:66:     while (x < -M_PI)
	vcomisd	%xmm0, %xmm3	 # x, tmp148
	ja	.L78	 #,
 # mahjong.c:71:     if (x > M_PI / 2)
	vcomisd	%xmm4, %xmm0	 # tmp149, x
	ja	.L94	 #,
.L91:
 # mahjong.c:76:     else if (x < -M_PI / 2)
	vmovsd	.LC5(%rip), %xmm1	 #, tmp115
	vcomisd	%xmm0, %xmm1	 # x, tmp115
	jbe	.L92	 #,
 # mahjong.c:78:         x = -M_PI - x;
	vmovsd	.LC3(%rip), %xmm1	 #, tmp116
	vsubsd	%xmm0, %xmm1, %xmm0	 # x, tmp116, x
	jmp	.L81	 #
	.p2align 4
	.p2align 3
.L92:
 # mahjong.c:85:         (1.0 - (x*x/30.0)));
	vmovsd	.LC7(%rip), %xmm1	 #, tmp136
 # mahjong.c:83:         1.0 - (x*x/2.0) *
	vmulsd	%xmm0, %xmm0, %xmm0	 # x, x, _40
 # mahjong.c:85:         (1.0 - (x*x/30.0)));
	vdivsd	.LC6(%rip), %xmm0, %xmm2	 #, _40, tmp133
 # mahjong.c:84:         (1.0 - (x*x/12.0) *
	vdivsd	.LC8(%rip), %xmm0, %xmm3	 #, _40, tmp137
 # mahjong.c:85:         (1.0 - (x*x/30.0)));
	vsubsd	%xmm2, %xmm1, %xmm2	 # tmp133, tmp136, tmp135
 # mahjong.c:83:         1.0 - (x*x/2.0) *
	vmulsd	.LC9(%rip), %xmm0, %xmm0	 #, _40, tmp142
 # mahjong.c:84:         (1.0 - (x*x/12.0) *
	vmulsd	%xmm3, %xmm2, %xmm2	 # tmp137, tmp135, tmp139
 # mahjong.c:84:         (1.0 - (x*x/12.0) *
	vsubsd	%xmm2, %xmm1, %xmm2	 # tmp139, tmp136, tmp140
 # mahjong.c:83:         1.0 - (x*x/2.0) *
	vmulsd	%xmm0, %xmm2, %xmm0	 # tmp142, tmp140, tmp144
 # mahjong.c:82:     double result =
	vsubsd	%xmm0, %xmm1, %xmm0	 # tmp144, tmp136, iftmp.0_25
 # mahjong.c:100:     return (f32)sin((double)x);
	vcvtsd2ss	%xmm0, %xmm0, %xmm0	 # iftmp.0_25, tmp117
 # mahjong.c:101: }
	ret	
	.seh_endproc
	.p2align 4
	.globl	f32s_equal
	.def	f32s_equal;	.scl	2;	.type	32;	.endef
	.seh_proc	f32s_equal
f32s_equal:
	.seh_endprologue
 # mahjong.c:104:     f32 df = a-b;
	vsubss	%xmm1, %xmm0, %xmm0	 # tmp97, tmp96, df
 # mahjong.c:105:     if(df < 0.0f) { df = -df; }
	vxorps	%xmm1, %xmm1, %xmm1	 # tmp87
 # mahjong.c:105:     if(df < 0.0f) { df = -df; }
	vxorps	.LC12(%rip), %xmm0, %xmm3	 #, df, tmp98
 # mahjong.c:106:     return (df <= 0.0001f);
	xorl	%eax, %eax	 # tmp92
 # mahjong.c:105:     if(df < 0.0f) { df = -df; }
	vmovaps	%xmm0, %xmm2	 # df, tmp99
	vcmpltss	%xmm1, %xmm0, %xmm0	 #, tmp87, df, tmp100
 # mahjong.c:106:     return (df <= 0.0001f);
	vmovss	.LC13(%rip), %xmm1	 #, tmp95
 # mahjong.c:105:     if(df < 0.0f) { df = -df; }
	vblendvps	%xmm0, %xmm3, %xmm2, %xmm0	 # tmp100, tmp98, tmp99, df
 # mahjong.c:106:     return (df <= 0.0001f);
	vcomiss	%xmm0, %xmm1	 # df, tmp95
	setnb	%al	 #, tmp92
 # mahjong.c:107: }
	ret	
	.seh_endproc
	.p2align 4
	.globl	fabsf
	.def	fabsf;	.scl	2;	.type	32;	.endef
	.seh_proc	fabsf
fabsf:
	.seh_endprologue
 # mahjong.c:110:     if(f < 0.0f) { return -f; }
	vxorps	%xmm1, %xmm1, %xmm1	 # tmp84
 # mahjong.c:110:     if(f < 0.0f) { return -f; }
	vxorps	.LC12(%rip), %xmm0, %xmm3	 #, f, tmp90
	vmovaps	%xmm0, %xmm2	 # f, tmp91
	vcmpltss	%xmm1, %xmm0, %xmm0	 #, tmp84, f, tmp92
	vblendvps	%xmm0, %xmm3, %xmm2, %xmm0	 # tmp92, tmp90, tmp91, f
 # mahjong.c:112: }
	ret	
	.seh_endproc
	.p2align 4
	.globl	lerp
	.def	lerp;	.scl	2;	.type	32;	.endef
	.seh_proc	lerp
lerp:
	.seh_endprologue
 # mahjong.c:116:     return a + ((b-a) * mix);
	vsubss	%xmm0, %xmm1, %xmm1	 # a, tmp92, tmp89
 # mahjong.c:116:     return a + ((b-a) * mix);
	vmulss	%xmm2, %xmm1, %xmm1	 # tmp93, tmp89, tmp90
 # mahjong.c:116:     return a + ((b-a) * mix);
	vaddss	%xmm0, %xmm1, %xmm0	 # a, tmp90, tmp88
 # mahjong.c:117: }
	ret	
	.seh_endproc
	.p2align 4
	.globl	fast_atan2
	.def	fast_atan2;	.scl	2;	.type	32;	.endef
	.seh_proc	fast_atan2
fast_atan2:
	.seh_endprologue
 # mahjong.c:110:     if(f < 0.0f) { return -f; }
	vxorps	%xmm3, %xmm3, %xmm3	 # tmp94
 # mahjong.c:120: f32 fast_atan2(f32 y, f32 x) {
	vmovaps	%xmm0, %xmm2	 # tmp113, y
 # mahjong.c:111:     return f;
	vxorps	.LC12(%rip), %xmm2, %xmm4	 #, y, tmp115
	vcmpltss	%xmm3, %xmm0, %xmm3	 #, tmp94, y, tmp117
	vblendvps	%xmm3, %xmm4, %xmm0, %xmm0	 # tmp117, tmp115, tmp116, _11
 # mahjong.c:124:     f32 abs_y = fabsf(y) + 1e-10f;
	vaddss	.LC14(%rip), %xmm0, %xmm0	 #, _11, abs_y
 # mahjong.c:127:     if (x >= 0.0f)
	vxorps	%xmm4, %xmm4, %xmm4	 # tmp97
	vcomiss	%xmm4, %xmm1	 # tmp97, x
 # mahjong.c:129:         f32 r = (x - abs_y) / (x + abs_y);
	vaddss	%xmm1, %xmm0, %xmm3	 # x, abs_y, _29
 # mahjong.c:127:     if (x >= 0.0f)
	jb	.L116	 #,
 # mahjong.c:129:         f32 r = (x - abs_y) / (x + abs_y);
	vsubss	%xmm0, %xmm1, %xmm1	 # abs_y, x, tmp98
 # mahjong.c:130:         angle = PI_4 - PI_4 * r;
	vmovss	.LC15(%rip), %xmm0	 #, tmp101
 # mahjong.c:129:         f32 r = (x - abs_y) / (x + abs_y);
	vdivss	%xmm3, %xmm1, %xmm1	 # _29, tmp98, r
 # mahjong.c:130:         angle = PI_4 - PI_4 * r;
	vmulss	%xmm0, %xmm1, %xmm1	 # tmp101, r, tmp100
 # mahjong.c:130:         angle = PI_4 - PI_4 * r;
	vsubss	%xmm1, %xmm0, %xmm0	 # tmp100, tmp101, <retval>
.L109:
 # mahjong.c:138:     return (y < 0.0f) ? -angle : angle;
	vmovaps	%xmm0, %xmm3	 # <retval>, tmp119
	vxorps	.LC12(%rip), %xmm0, %xmm0	 #, <retval>, tmp118
 # mahjong.c:138:     return (y < 0.0f) ? -angle : angle;
	vxorps	%xmm1, %xmm1, %xmm1	 # tmp108
 # mahjong.c:138:     return (y < 0.0f) ? -angle : angle;
	vcmpltss	%xmm1, %xmm2, %xmm2	 #, tmp108, y, tmp120
	vblendvps	%xmm2, %xmm0, %xmm3, %xmm0	 # tmp120, tmp118, tmp119, <retval>
 # mahjong.c:139: }
	ret	
	.p2align 4
	.p2align 3
.L116:
 # mahjong.c:134:         f32 r = (x + abs_y) / (abs_y - x);
	vsubss	%xmm1, %xmm0, %xmm0	 # x, abs_y, tmp103
 # mahjong.c:134:         f32 r = (x + abs_y) / (abs_y - x);
	vdivss	%xmm0, %xmm3, %xmm3	 # tmp103, _29, r
 # mahjong.c:135:         angle = PI_3_4 - PI_4 * r;
	vmovss	.LC16(%rip), %xmm0	 #, tmp107
 # mahjong.c:135:         angle = PI_3_4 - PI_4 * r;
	vmulss	.LC15(%rip), %xmm3, %xmm3	 #, r, tmp105
 # mahjong.c:135:         angle = PI_3_4 - PI_4 * r;
	vsubss	%xmm3, %xmm0, %xmm0	 # tmp105, tmp107, <retval>
	jmp	.L109	 #
	.seh_endproc
	.p2align 4
	.globl	mat_mul_mat
	.def	mat_mul_mat;	.scl	2;	.type	32;	.endef
	.seh_proc	mat_mul_mat
mat_mul_mat:
	subq	$72, %rsp	 #,
	.seh_stackalloc	72
	.seh_endprologue
 # mahjong.c:186:          r.m[i][j] = (a->m[i][0] * b->m[0][j] + 
	vmovups	(%r8), %zmm2	 # MEM <const vector(16) float> [(float *)b_25(D)], MEM <const vector(16) float> [(float *)b_25(D)]
 # mahjong.c:186:          r.m[i][j] = (a->m[i][0] * b->m[0][j] + 
	vmovups	(%rdx), %zmm1	 # MEM <const vector(16) float> [(float *)a_24(D)], MEM <const vector(16) float> [(float *)a_24(D)]
 # mahjong.c:182: matrix mat_mul_mat(const matrix *a, const matrix *b) { 
	movq	%rcx, %rax	 # tmp121, .result_ptr
 # mahjong.c:186:          r.m[i][j] = (a->m[i][0] * b->m[0][j] + 
	vpermilps	$85, %zmm1, %zmm3	 #, MEM <const vector(16) float> [(float *)a_24(D)], vect__30.609
 # mahjong.c:186:          r.m[i][j] = (a->m[i][0] * b->m[0][j] + 
	vshuff32x4	$85, %zmm2, %zmm2, %zmm0	 #, MEM <const vector(16) float> [(float *)b_25(D)], vect__31.635
 # mahjong.c:186:          r.m[i][j] = (a->m[i][0] * b->m[0][j] + 
	vpermilps	$0, %zmm1, %zmm4	 #, MEM <const vector(16) float> [(float *)a_24(D)], vect__30.604
 # mahjong.c:187:                       a->m[i][1] * b->m[1][j] + 
	vmulps	%zmm3, %zmm0, %zmm0	 # vect__30.609, vect__31.635, vect__35.610
 # mahjong.c:186:          r.m[i][j] = (a->m[i][0] * b->m[0][j] + 
	vshuff32x4	$0, %zmm2, %zmm2, %zmm3	 #, MEM <const vector(16) float> [(float *)b_25(D)], vect__31.631
 # mahjong.c:186:          r.m[i][j] = (a->m[i][0] * b->m[0][j] + 
	vmulps	%zmm4, %zmm3, %zmm3	 # vect__30.604, vect__31.631, vect__32.605
 # mahjong.c:186:          r.m[i][j] = (a->m[i][0] * b->m[0][j] + 
	vpermilps	$170, %zmm1, %zmm4	 #, MEM <const vector(16) float> [(float *)a_24(D)], vect__30.615
	vpermilps	$255, %zmm1, %zmm1	 #, MEM <const vector(16) float> [(float *)a_24(D)], vect__30.621
 # mahjong.c:186:          r.m[i][j] = (a->m[i][0] * b->m[0][j] + 
	vaddps	%zmm3, %zmm0, %zmm0	 # vect__32.605, vect__35.610, vect__36.611
 # mahjong.c:186:          r.m[i][j] = (a->m[i][0] * b->m[0][j] + 
	vshuff32x4	$170, %zmm2, %zmm2, %zmm3	 #, MEM <const vector(16) float> [(float *)b_25(D)], vect__31.639
	vshuff32x4	$255, %zmm2, %zmm2, %zmm2	 #, MEM <const vector(16) float> [(float *)b_25(D)], vect__31.643
 # mahjong.c:188:                       a->m[i][2] * b->m[2][j] + 
	vmulps	%zmm4, %zmm3, %zmm3	 # vect__30.615, vect__31.639, vect__39.616
 # mahjong.c:189:                       a->m[i][3] * b->m[3][j]);
	vmulps	%zmm2, %zmm1, %zmm1	 # vect__31.643, vect__30.621, vect__43.622
 # mahjong.c:187:                       a->m[i][1] * b->m[1][j] + 
	vaddps	%zmm3, %zmm0, %zmm0	 # vect__39.616, vect__36.611, vect__40.617
 # mahjong.c:186:          r.m[i][j] = (a->m[i][0] * b->m[0][j] + 
	vaddps	%zmm1, %zmm0, %zmm0	 # vect__43.622, vect__40.617, tmp120
 # mahjong.c:192:     return r; 
	vmovdqu64	%zmm0, (%rcx)	 # tmp120, <retval>
	vzeroupper
 # mahjong.c:193: }
	addq	$72, %rsp	 #,
	ret	
	.seh_endproc
	.p2align 4
	.globl	mat_inverse_affine
	.def	mat_inverse_affine;	.scl	2;	.type	32;	.endef
	.seh_proc	mat_inverse_affine
mat_inverse_affine:
	subq	$24, %rsp	 #,
	.seh_stackalloc	24
	vmovups	%xmm6, (%rsp)	 #,
	.seh_savexmm	%xmm6, 0
	.seh_endprologue
 # mahjong.c:197:     float m10 = a->m[1][0], m11 = a->m[1][1], m12 = a->m[1][2];
	vmovss	20(%rdx), %xmm23	 # a_61(D)->m[1][1], m11
 # mahjong.c:197:     float m10 = a->m[1][0], m11 = a->m[1][1], m12 = a->m[1][2];
	vmovss	24(%rdx), %xmm20	 # a_61(D)->m[1][2], m12
 # mahjong.c:198:     float m20 = a->m[2][0], m21 = a->m[2][1], m22 = a->m[2][2];
	vmovss	36(%rdx), %xmm6	 # a_61(D)->m[2][1], m21
 # mahjong.c:195: matrix mat_inverse_affine(const matrix *a) {
	movq	%rcx, %rax	 # tmp221, .result_ptr
 # mahjong.c:198:     float m20 = a->m[2][0], m21 = a->m[2][1], m22 = a->m[2][2];
	vmovss	40(%rdx), %xmm17	 # a_61(D)->m[2][2], m22
 # mahjong.c:197:     float m10 = a->m[1][0], m11 = a->m[1][1], m12 = a->m[1][2];
	vmovss	16(%rdx), %xmm22	 # a_61(D)->m[1][0], m10
 # mahjong.c:198:     float m20 = a->m[2][0], m21 = a->m[2][1], m22 = a->m[2][2];
	vmovss	32(%rdx), %xmm5	 # a_61(D)->m[2][0], m20
 # mahjong.c:196:     float m00 = a->m[0][0], m01 = a->m[0][1], m02 = a->m[0][2];
	vmovss	(%rdx), %xmm1	 # a_61(D)->m[0][0], m00
 # mahjong.c:196:     float m00 = a->m[0][0], m01 = a->m[0][1], m02 = a->m[0][2];
	vmovss	4(%rdx), %xmm19	 # a_61(D)->m[0][1], m01
 # mahjong.c:196:     float m00 = a->m[0][0], m01 = a->m[0][1], m02 = a->m[0][2];
	vmovss	8(%rdx), %xmm2	 # a_61(D)->m[0][2], m02
 # mahjong.c:200:     float det = m00 * (m11 * m22 - m12 * m21)
	vmulss	%xmm6, %xmm20, %xmm0	 # m21, m12, tmp160
 # mahjong.c:200:     float det = m00 * (m11 * m22 - m12 * m21)
	vmulss	%xmm17, %xmm23, %xmm3	 # m22, m11, tmp159
 # mahjong.c:201:               - m01 * (m10 * m22 - m12 * m20)
	vmulss	%xmm17, %xmm22, %xmm24	 # m22, m10, _5
 # mahjong.c:201:               - m01 * (m10 * m22 - m12 * m20)
	vmulss	%xmm5, %xmm20, %xmm16	 # m20, m12, _6
 # mahjong.c:202:               + m02 * (m10 * m21 - m11 * m20);
	vmulss	%xmm6, %xmm22, %xmm4	 # m21, m10, tmp161
 # mahjong.c:210:     r.m[0][1] = (m02 * m21 - m01 * m22) * invDet;
	vmulss	%xmm6, %xmm2, %xmm21	 # m21, m02, tmp170
 # mahjong.c:211:     r.m[0][2] = (m01 * m12 - m02 * m11) * invDet;
	vmulss	%xmm23, %xmm2, %xmm25	 # m11, m02, tmp174
 # mahjong.c:200:     float det = m00 * (m11 * m22 - m12 * m21)
	vsubss	%xmm0, %xmm3, %xmm3	 # tmp160, tmp159, _3
 # mahjong.c:202:               + m02 * (m10 * m21 - m11 * m20);
	vmulss	%xmm5, %xmm23, %xmm0	 # m20, m11, tmp162
 # mahjong.c:218:     r.m[2][1] = (m01 * m20 - m00 * m21) * invDet;
	vmulss	%xmm6, %xmm1, %xmm6	 # m21, m00, tmp184
 # mahjong.c:202:               + m02 * (m10 * m21 - m11 * m20);
	vsubss	%xmm0, %xmm4, %xmm4	 # tmp162, tmp161, _12
 # mahjong.c:201:               - m01 * (m10 * m22 - m12 * m20)
	vsubss	%xmm16, %xmm24, %xmm0	 # _6, _5, tmp164
 # mahjong.c:200:     float det = m00 * (m11 * m22 - m12 * m21)
	vmulss	%xmm1, %xmm3, %xmm18	 # m00, _3, tmp163
 # mahjong.c:213:     r.m[1][0] = (m12 * m20 - m10 * m22) * invDet;
	vsubss	%xmm24, %xmm16, %xmm16	 # _5, _6, tmp176
 # mahjong.c:214:     r.m[1][1] = (m00 * m22 - m02 * m20) * invDet;
	vmulss	%xmm5, %xmm2, %xmm24	 # m20, m02, tmp178
 # mahjong.c:218:     r.m[2][1] = (m01 * m20 - m00 * m21) * invDet;
	vmulss	%xmm5, %xmm19, %xmm5	 # m20, m01, tmp183
 # mahjong.c:201:               - m01 * (m10 * m22 - m12 * m20)
	vmulss	%xmm19, %xmm0, %xmm0	 # m01, tmp164, tmp165
 # mahjong.c:218:     r.m[2][1] = (m01 * m20 - m00 * m21) * invDet;
	vsubss	%xmm6, %xmm5, %xmm5	 # tmp184, tmp183, tmp185
 # mahjong.c:201:               - m01 * (m10 * m22 - m12 * m20)
	vsubss	%xmm0, %xmm18, %xmm18	 # tmp165, tmp163, tmp166
 # mahjong.c:202:               + m02 * (m10 * m21 - m11 * m20);
	vmulss	%xmm2, %xmm4, %xmm0	 # m02, _12, tmp167
 # mahjong.c:215:     r.m[1][2] = (m02 * m10 - m00 * m12) * invDet;
	vmulss	%xmm22, %xmm2, %xmm2	 # m10, m02, tmp180
 # mahjong.c:200:     float det = m00 * (m11 * m22 - m12 * m21)
	vaddss	%xmm0, %xmm18, %xmm18	 # tmp167, tmp166, det
 # mahjong.c:205:     float invDet = 1.0f / det;
	vmovss	.LC17(%rip), %xmm0	 #, tmp169
	vdivss	%xmm18, %xmm0, %xmm0	 # det, tmp169, invDet
 # mahjong.c:210:     r.m[0][1] = (m02 * m21 - m01 * m22) * invDet;
	vmulss	%xmm17, %xmm19, %xmm18	 # m22, m01, tmp171
 # mahjong.c:214:     r.m[1][1] = (m00 * m22 - m02 * m20) * invDet;
	vmulss	%xmm17, %xmm1, %xmm17	 # m22, m00, tmp177
 # mahjong.c:210:     r.m[0][1] = (m02 * m21 - m01 * m22) * invDet;
	vsubss	%xmm18, %xmm21, %xmm21	 # tmp171, tmp170, tmp172
 # mahjong.c:211:     r.m[0][2] = (m01 * m12 - m02 * m11) * invDet;
	vmulss	%xmm20, %xmm19, %xmm18	 # m12, m01, tmp173
 # mahjong.c:215:     r.m[1][2] = (m02 * m10 - m00 * m12) * invDet;
	vmulss	%xmm20, %xmm1, %xmm20	 # m12, m00, tmp181
 # mahjong.c:214:     r.m[1][1] = (m00 * m22 - m02 * m20) * invDet;
	vsubss	%xmm24, %xmm17, %xmm17	 # tmp178, tmp177, tmp179
 # mahjong.c:219:     r.m[2][2] = (m00 * m11 - m01 * m10) * invDet;
	vmulss	%xmm22, %xmm19, %xmm19	 # m10, m01, tmp187
 # mahjong.c:219:     r.m[2][2] = (m00 * m11 - m01 * m10) * invDet;
	vmulss	%xmm23, %xmm1, %xmm1	 # m11, m00, tmp186
 # mahjong.c:222:     float tx = a->m[0][3], ty = a->m[1][3], tz = a->m[2][3];
	vmovss	28(%rdx), %xmm23	 # a_61(D)->m[1][3], ty
 # mahjong.c:222:     float tx = a->m[0][3], ty = a->m[1][3], tz = a->m[2][3];
	vmovss	44(%rdx), %xmm22	 # a_61(D)->m[2][3], tz
 # mahjong.c:223:     r.m[0][3] = -(r.m[0][0] * tx + r.m[0][1] * ty + r.m[0][2] * tz);
	vmovss	.LC12(%rip), %xmm24	 #, tmp196
 # mahjong.c:211:     r.m[0][2] = (m01 * m12 - m02 * m11) * invDet;
	vsubss	%xmm25, %xmm18, %xmm18	 # tmp174, tmp173, tmp175
 # mahjong.c:215:     r.m[1][2] = (m02 * m10 - m00 * m12) * invDet;
	vsubss	%xmm20, %xmm2, %xmm2	 # tmp181, tmp180, tmp182
 # mahjong.c:219:     r.m[2][2] = (m00 * m11 - m01 * m10) * invDet;
	vsubss	%xmm19, %xmm1, %xmm1	 # tmp187, tmp186, tmp188
 # mahjong.c:218:     r.m[2][1] = (m01 * m20 - m00 * m21) * invDet;
	vmulss	%xmm0, %xmm5, %xmm5	 # invDet, tmp185, _37
 # mahjong.c:210:     r.m[0][1] = (m02 * m21 - m01 * m22) * invDet;
	vmulss	%xmm0, %xmm21, %xmm21	 # invDet, tmp172, _18
 # mahjong.c:211:     r.m[0][2] = (m01 * m12 - m02 * m11) * invDet;
	vmulss	%xmm0, %xmm18, %xmm18	 # invDet, tmp175, _22
 # mahjong.c:213:     r.m[1][0] = (m12 * m20 - m10 * m22) * invDet;
	vmulss	%xmm0, %xmm16, %xmm16	 # invDet, tmp176, _24
 # mahjong.c:214:     r.m[1][1] = (m00 * m22 - m02 * m20) * invDet;
	vmulss	%xmm0, %xmm17, %xmm17	 # invDet, tmp179, _28
 # mahjong.c:209:     r.m[0][0] = (m11 * m22 - m12 * m21) * invDet;
	vmulss	%xmm0, %xmm3, %xmm3	 # invDet, _3, _14
 # mahjong.c:215:     r.m[1][2] = (m02 * m10 - m00 * m12) * invDet;
	vmulss	%xmm0, %xmm2, %xmm2	 # invDet, tmp182, _32
 # mahjong.c:217:     r.m[2][0] = (m10 * m21 - m11 * m20) * invDet;
	vmulss	%xmm0, %xmm4, %xmm4	 # invDet, _12, _33
 # mahjong.c:219:     r.m[2][2] = (m00 * m11 - m01 * m10) * invDet;
	vmulss	%xmm0, %xmm1, %xmm1	 # invDet, tmp188, _41
 # mahjong.c:222:     float tx = a->m[0][3], ty = a->m[1][3], tz = a->m[2][3];
	vmovss	12(%rdx), %xmm0	 # a_61(D)->m[0][3], tx
 # mahjong.c:223:     r.m[0][3] = -(r.m[0][0] * tx + r.m[0][1] * ty + r.m[0][2] * tz);
	vmulss	%xmm23, %xmm21, %xmm6	 # ty, _18, tmp191
 # mahjong.c:223:     r.m[0][3] = -(r.m[0][0] * tx + r.m[0][1] * ty + r.m[0][2] * tz);
	vmulss	%xmm0, %xmm3, %xmm19	 # tx, _14, tmp190
 # mahjong.c:224:     r.m[1][3] = -(r.m[1][0] * tx + r.m[1][1] * ty + r.m[1][2] * tz);
	vmulss	%xmm0, %xmm16, %xmm20	 # tx, _24, tmp197
 # mahjong.c:228:     return r;
	vunpcklps	%xmm21, %xmm3, %xmm3	 # _18, _14, tmp209
 # mahjong.c:225:     r.m[2][3] = -(r.m[2][0] * tx + r.m[2][1] * ty + r.m[2][2] * tz);
	vmulss	%xmm0, %xmm4, %xmm0	 # tx, _33, tmp211
 # mahjong.c:228:     return r;
	vunpcklps	%xmm5, %xmm4, %xmm4	 # _37, _33, tmp219
 # mahjong.c:223:     r.m[0][3] = -(r.m[0][0] * tx + r.m[0][1] * ty + r.m[0][2] * tz);
	vaddss	%xmm6, %xmm19, %xmm19	 # tmp191, tmp190, tmp192
 # mahjong.c:223:     r.m[0][3] = -(r.m[0][0] * tx + r.m[0][1] * ty + r.m[0][2] * tz);
	vmulss	%xmm22, %xmm18, %xmm6	 # tz, _22, tmp193
 # mahjong.c:223:     r.m[0][3] = -(r.m[0][0] * tx + r.m[0][1] * ty + r.m[0][2] * tz);
	vaddss	%xmm6, %xmm19, %xmm19	 # tmp193, tmp192, tmp194
 # mahjong.c:224:     r.m[1][3] = -(r.m[1][0] * tx + r.m[1][1] * ty + r.m[1][2] * tz);
	vmulss	%xmm23, %xmm17, %xmm6	 # ty, _28, tmp198
 # mahjong.c:225:     r.m[2][3] = -(r.m[2][0] * tx + r.m[2][1] * ty + r.m[2][2] * tz);
	vmulss	%xmm23, %xmm5, %xmm23	 # ty, _37, tmp212
 # mahjong.c:224:     r.m[1][3] = -(r.m[1][0] * tx + r.m[1][1] * ty + r.m[1][2] * tz);
	vaddss	%xmm6, %xmm20, %xmm20	 # tmp198, tmp197, tmp199
 # mahjong.c:225:     r.m[2][3] = -(r.m[2][0] * tx + r.m[2][1] * ty + r.m[2][2] * tz);
	vaddss	%xmm23, %xmm0, %xmm0	 # tmp212, tmp211, tmp213
 # mahjong.c:224:     r.m[1][3] = -(r.m[1][0] * tx + r.m[1][1] * ty + r.m[1][2] * tz);
	vmulss	%xmm22, %xmm2, %xmm6	 # tz, _32, tmp200
 # mahjong.c:225:     r.m[2][3] = -(r.m[2][0] * tx + r.m[2][1] * ty + r.m[2][2] * tz);
	vmulss	%xmm22, %xmm1, %xmm22	 # tz, _41, tmp214
 # mahjong.c:223:     r.m[0][3] = -(r.m[0][0] * tx + r.m[0][1] * ty + r.m[0][2] * tz);
	vxorps	%xmm24, %xmm19, %xmm19	 # tmp196, tmp194, tmp195
 # mahjong.c:225:     r.m[2][3] = -(r.m[2][0] * tx + r.m[2][1] * ty + r.m[2][2] * tz);
	vaddss	%xmm22, %xmm0, %xmm0	 # tmp214, tmp213, tmp215
 # mahjong.c:224:     r.m[1][3] = -(r.m[1][0] * tx + r.m[1][1] * ty + r.m[1][2] * tz);
	vaddss	%xmm6, %xmm20, %xmm20	 # tmp200, tmp199, tmp201
 # mahjong.c:228:     return r;
	vunpcklps	%xmm17, %xmm16, %xmm6	 # _28, _24, tmp206
 # mahjong.c:225:     r.m[2][3] = -(r.m[2][0] * tx + r.m[2][1] * ty + r.m[2][2] * tz);
	vxorps	%xmm24, %xmm0, %xmm0	 # tmp196, tmp215, tmp216
 # mahjong.c:224:     r.m[1][3] = -(r.m[1][0] * tx + r.m[1][1] * ty + r.m[1][2] * tz);
	vxorps	%xmm24, %xmm20, %xmm20	 # tmp196, tmp201, tmp202
 # mahjong.c:228:     return r;
	vunpcklps	%xmm0, %xmm1, %xmm1	 # tmp216, _41, tmp218
	vmovups	.LC18(%rip), %xmm0	 #, tmp220
	vunpcklps	%xmm20, %xmm2, %xmm2	 # tmp202, _32, tmp205
	vmovlhps	%xmm2, %xmm6, %xmm16	 # tmp205, tmp206, tmp204
	vunpcklps	%xmm19, %xmm18, %xmm2	 # tmp195, _22, tmp208
	vmovlhps	%xmm1, %xmm4, %xmm4	 # tmp218, tmp219, tmp210
	vmovlhps	%xmm2, %xmm3, %xmm3	 # tmp208, tmp209, tmp207
	vmovups	%xmm4, 32(%rcx)	 # tmp210, MEM <vector(4) float> [(float *)&<retval> + 32B]
	vinsertf32x4	$0x1, %xmm16, %ymm3, %ymm3	 # tmp204, tmp207, tmp189
	vmovups	%ymm3, (%rcx)	 # tmp189, MEM <vector(8) float> [(float *)&<retval>]
	vmovups	%xmm0, 48(%rcx)	 # tmp220, MEM <vector(4) float> [(float *)&<retval> + 48B]
	vzeroupper
 # mahjong.c:229: }
	vmovups	(%rsp), %xmm6	 #,
	addq	$24, %rsp	 #,
	ret	
	.seh_endproc
	.p2align 4
	.globl	transform_to_matrix
	.def	transform_to_matrix;	.scl	2;	.type	32;	.endef
	.seh_proc	transform_to_matrix
transform_to_matrix:
	.seh_endprologue
	vxorps	%xmm1, %xmm1, %xmm1	 # tmp377
 # mahjong.c:92:     return cos(x-M_PI_2);
	vmovsd	.LC4(%rip), %xmm21	 #, tmp370
 # mahjong.c:63:     while (x > M_PI)
	vmovsd	.LC1(%rip), %xmm4	 #, tmp367
	vmovsd	.LC2(%rip), %xmm0	 #, tmp368
 # mahjong.c:100:     return (f32)sin((double)x);
	vcvtss2sd	12(%rdx), %xmm1, %xmm3	 # t_24(D)->rotation.x, tmp377, tmp378
 # mahjong.c:231: matrix transform_to_matrix(const transform *t) { 
	movq	%rcx, %rax	 # tmp375, .result_ptr
 # mahjong.c:92:     return cos(x-M_PI_2);
	vsubsd	%xmm21, %xmm3, %xmm2	 # tmp370, x, x
 # mahjong.c:63:     while (x > M_PI)
	vcomisd	%xmm4, %xmm2	 # tmp367, x
	jbe	.L188	 #,
	.p2align 4
	.p2align 3
.L122:
 # mahjong.c:64:         x -= 2.0 * M_PI;
	vsubsd	%xmm0, %xmm2, %xmm2	 # tmp368, x, x
 # mahjong.c:63:     while (x > M_PI)
	vcomisd	%xmm4, %xmm2	 # tmp367, x
	ja	.L122	 #,
.L123:
 # mahjong.c:71:     if (x > M_PI / 2)
	vcomisd	%xmm21, %xmm2	 # tmp370, x
	jbe	.L189	 #,
	.p2align 4
	.p2align 3
.L204:
 # mahjong.c:73:         x = M_PI - x;
	vsubsd	%xmm2, %xmm4, %xmm2	 # x, tmp367, x
.L128:
 # mahjong.c:83:         1.0 - (x*x/2.0) *
	vmulsd	%xmm2, %xmm2, %xmm2	 # x, x, _201
 # mahjong.c:85:         (1.0 - (x*x/30.0)));
	vmovsd	.LC7(%rip), %xmm18	 #, tmp372
 # mahjong.c:85:         (1.0 - (x*x/30.0)));
	vmovsd	.LC6(%rip), %xmm17	 #, tmp371
 # mahjong.c:84:         (1.0 - (x*x/12.0) *
	vmovsd	.LC8(%rip), %xmm20	 #, tmp373
 # mahjong.c:85:         (1.0 - (x*x/30.0)));
	vdivsd	%xmm17, %xmm2, %xmm16	 # tmp371, _201, tmp339
 # mahjong.c:84:         (1.0 - (x*x/12.0) *
	vdivsd	%xmm20, %xmm2, %xmm0	 # tmp373, _201, tmp343
 # mahjong.c:85:         (1.0 - (x*x/30.0)));
	vsubsd	%xmm16, %xmm18, %xmm16	 # tmp339, tmp372, tmp341
 # mahjong.c:83:         1.0 - (x*x/2.0) *
	vmovsd	.LC9(%rip), %xmm19	 #, tmp374
 # mahjong.c:84:         (1.0 - (x*x/12.0) *
	vmulsd	%xmm0, %xmm16, %xmm16	 # tmp343, tmp341, tmp345
 # mahjong.c:83:         1.0 - (x*x/2.0) *
	vmulsd	%xmm19, %xmm2, %xmm2	 # tmp374, _201, tmp348
 # mahjong.c:84:         (1.0 - (x*x/12.0) *
	vsubsd	%xmm16, %xmm18, %xmm16	 # tmp345, tmp372, tmp346
 # mahjong.c:83:         1.0 - (x*x/2.0) *
	vmulsd	%xmm2, %xmm16, %xmm16	 # tmp348, tmp346, tmp350
 # mahjong.c:82:     double result =
	vsubsd	%xmm16, %xmm18, %xmm16	 # tmp350, tmp372, result
 # mahjong.c:87:     return negate ? -result : result;
	vxorpd	.LC10(%rip), %xmm16, %xmm16	 #, result, iftmp.0_131
.L167:
 # mahjong.c:100:     return (f32)sin((double)x);
	vcvtsd2ss	%xmm16, %xmm16, %xmm16	 # iftmp.0_131, _36
	vmovsd	.LC2(%rip), %xmm0	 #, tmp368
 # mahjong.c:63:     while (x > M_PI)
	vcomisd	%xmm4, %xmm3	 # tmp367, x
	jbe	.L191	 #,
	.p2align 4
	.p2align 3
.L133:
 # mahjong.c:64:         x -= 2.0 * M_PI;
	vsubsd	%xmm0, %xmm3, %xmm3	 # tmp368, x, x
 # mahjong.c:63:     while (x > M_PI)
	vcomisd	%xmm4, %xmm3	 # tmp367, x
	ja	.L133	 #,
.L134:
 # mahjong.c:71:     if (x > M_PI / 2)
	vcomisd	%xmm21, %xmm3	 # tmp370, x
	jbe	.L192	 #,
	.p2align 4
	.p2align 3
.L203:
 # mahjong.c:73:         x = M_PI - x;
	vsubsd	%xmm3, %xmm4, %xmm0	 # x, tmp367, x
.L139:
 # mahjong.c:83:         1.0 - (x*x/2.0) *
	vmulsd	%xmm0, %xmm0, %xmm0	 # x, x, _179
 # mahjong.c:85:         (1.0 - (x*x/30.0)));
	vdivsd	%xmm17, %xmm0, %xmm3	 # tmp371, _179, tmp311
 # mahjong.c:84:         (1.0 - (x*x/12.0) *
	vdivsd	%xmm20, %xmm0, %xmm2	 # tmp373, _179, tmp315
 # mahjong.c:85:         (1.0 - (x*x/30.0)));
	vsubsd	%xmm3, %xmm18, %xmm3	 # tmp311, tmp372, tmp313
 # mahjong.c:83:         1.0 - (x*x/2.0) *
	vmulsd	%xmm19, %xmm0, %xmm0	 # tmp374, _179, tmp320
 # mahjong.c:84:         (1.0 - (x*x/12.0) *
	vmulsd	%xmm2, %xmm3, %xmm3	 # tmp315, tmp313, tmp317
 # mahjong.c:84:         (1.0 - (x*x/12.0) *
	vsubsd	%xmm3, %xmm18, %xmm3	 # tmp317, tmp372, tmp318
 # mahjong.c:83:         1.0 - (x*x/2.0) *
	vmulsd	%xmm0, %xmm3, %xmm3	 # tmp320, tmp318, tmp322
 # mahjong.c:82:     double result =
	vsubsd	%xmm3, %xmm18, %xmm3	 # tmp322, tmp372, result
 # mahjong.c:87:     return negate ? -result : result;
	vxorpd	.LC10(%rip), %xmm3, %xmm3	 #, result, iftmp.0_111
.L166:
 # mahjong.c:100:     return (f32)sin((double)x);
	vcvtss2sd	16(%rdx), %xmm1, %xmm1	 # t_24(D)->rotation.y, tmp377, tmp379
 # mahjong.c:96:     return (f32)cos((double)x);
	vcvtsd2ss	%xmm3, %xmm3, %xmm3	 # iftmp.0_111, _32
 # mahjong.c:92:     return cos(x-M_PI_2);
	vsubsd	%xmm21, %xmm1, %xmm2	 # tmp370, x, x
	vmovsd	.LC2(%rip), %xmm0	 #, tmp368
 # mahjong.c:63:     while (x > M_PI)
	vcomisd	%xmm4, %xmm2	 # tmp367, x
	jbe	.L194	 #,
	.p2align 4
	.p2align 3
.L144:
 # mahjong.c:64:         x -= 2.0 * M_PI;
	vsubsd	%xmm0, %xmm2, %xmm2	 # tmp368, x, x
 # mahjong.c:63:     while (x > M_PI)
	vcomisd	%xmm4, %xmm2	 # tmp367, x
	ja	.L144	 #,
.L145:
 # mahjong.c:71:     if (x > M_PI / 2)
	vcomisd	%xmm21, %xmm2	 # tmp370, x
	jbe	.L195	 #,
	.p2align 4
	.p2align 3
.L202:
 # mahjong.c:73:         x = M_PI - x;
	vsubsd	%xmm2, %xmm4, %xmm2	 # x, tmp367, x
.L150:
 # mahjong.c:83:         1.0 - (x*x/2.0) *
	vmulsd	%xmm2, %xmm2, %xmm2	 # x, x, _157
 # mahjong.c:85:         (1.0 - (x*x/30.0)));
	vdivsd	%xmm17, %xmm2, %xmm0	 # tmp371, _157, tmp283
 # mahjong.c:84:         (1.0 - (x*x/12.0) *
	vdivsd	%xmm20, %xmm2, %xmm5	 # tmp373, _157, tmp287
 # mahjong.c:85:         (1.0 - (x*x/30.0)));
	vsubsd	%xmm0, %xmm18, %xmm0	 # tmp283, tmp372, tmp285
 # mahjong.c:83:         1.0 - (x*x/2.0) *
	vmulsd	%xmm19, %xmm2, %xmm2	 # tmp374, _157, tmp292
 # mahjong.c:84:         (1.0 - (x*x/12.0) *
	vmulsd	%xmm5, %xmm0, %xmm0	 # tmp287, tmp285, tmp289
 # mahjong.c:84:         (1.0 - (x*x/12.0) *
	vsubsd	%xmm0, %xmm18, %xmm0	 # tmp289, tmp372, tmp290
 # mahjong.c:83:         1.0 - (x*x/2.0) *
	vmulsd	%xmm2, %xmm0, %xmm2	 # tmp292, tmp290, tmp294
 # mahjong.c:82:     double result =
	vsubsd	%xmm2, %xmm18, %xmm2	 # tmp294, tmp372, result
 # mahjong.c:87:     return negate ? -result : result;
	vxorpd	.LC10(%rip), %xmm2, %xmm2	 #, result, iftmp.0_91
.L165:
 # mahjong.c:100:     return (f32)sin((double)x);
	vcvtsd2ss	%xmm2, %xmm2, %xmm2	 # iftmp.0_91, _30
	vmovsd	.LC2(%rip), %xmm0	 #, tmp368
 # mahjong.c:63:     while (x > M_PI)
	vcomisd	%xmm4, %xmm1	 # tmp367, x
	jbe	.L197	 #,
	.p2align 4
	.p2align 3
.L155:
 # mahjong.c:64:         x -= 2.0 * M_PI;
	vsubsd	%xmm0, %xmm1, %xmm1	 # tmp368, x, x
 # mahjong.c:63:     while (x > M_PI)
	vcomisd	%xmm4, %xmm1	 # tmp367, x
	ja	.L155	 #,
.L156:
 # mahjong.c:71:     if (x > M_PI / 2)
	vcomisd	%xmm21, %xmm1	 # tmp370, x
	ja	.L201	 #,
 # mahjong.c:76:     else if (x < -M_PI / 2)
	vmovsd	.LC5(%rip), %xmm0	 #, tmp231
	vcomisd	%xmm1, %xmm0	 # x, tmp231
	jbe	.L199	 #,
 # mahjong.c:78:         x = -M_PI - x;
	vmovsd	.LC3(%rip), %xmm4	 #, tmp232
.L201:
	vsubsd	%xmm1, %xmm4, %xmm4	 # x, tmp232, x
 # mahjong.c:83:         1.0 - (x*x/2.0) *
	vmulsd	%xmm4, %xmm4, %xmm4	 # x, x, _115
 # mahjong.c:85:         (1.0 - (x*x/30.0)));
	vdivsd	%xmm17, %xmm4, %xmm0	 # tmp371, _115, tmp268
 # mahjong.c:84:         (1.0 - (x*x/12.0) *
	vdivsd	%xmm20, %xmm4, %xmm20	 # tmp373, _115, tmp272
 # mahjong.c:85:         (1.0 - (x*x/30.0)));
	vsubsd	%xmm0, %xmm18, %xmm0	 # tmp268, tmp372, tmp270
 # mahjong.c:83:         1.0 - (x*x/2.0) *
	vmulsd	%xmm19, %xmm4, %xmm4	 # tmp374, _115, tmp277
 # mahjong.c:84:         (1.0 - (x*x/12.0) *
	vmulsd	%xmm20, %xmm0, %xmm0	 # tmp272, tmp270, tmp274
 # mahjong.c:84:         (1.0 - (x*x/12.0) *
	vsubsd	%xmm0, %xmm18, %xmm0	 # tmp274, tmp372, tmp275
 # mahjong.c:83:         1.0 - (x*x/2.0) *
	vmulsd	%xmm4, %xmm0, %xmm0	 # tmp277, tmp275, tmp279
 # mahjong.c:82:     double result =
	vsubsd	%xmm0, %xmm18, %xmm0	 # tmp279, tmp372, result
 # mahjong.c:87:     return negate ? -result : result;
	vxorpd	.LC10(%rip), %xmm0, %xmm0	 #, result, iftmp.0_71
.L164:
 # mahjong.c:238:     r.m[0][1] = sy * sx * t->scale.y; 
	vmovss	28(%rdx), %xmm17	 # t_24(D)->scale.y, _6
 # mahjong.c:239:     r.m[0][2] = sy * cx * t->scale.z; 
	vmovss	32(%rdx), %xmm5	 # t_24(D)->scale.z, _9
 # mahjong.c:238:     r.m[0][1] = sy * sx * t->scale.y; 
	vmulss	%xmm16, %xmm2, %xmm4	 # _36, _30, tmp235
 # mahjong.c:237:     r.m[0][0] = cy * t->scale.x; 
	vmovss	24(%rdx), %xmm19	 # t_24(D)->scale.x, _3
 # mahjong.c:96:     return (f32)cos((double)x);
	vcvtsd2ss	%xmm0, %xmm0, %xmm0	 # iftmp.0_71, _26
 # mahjong.c:244:     r.m[1][3] = t->position.y; 
	vmovss	4(%rdx), %xmm21	 # t_24(D)->position.y, _15
 # mahjong.c:248:     r.m[2][3] = t->position.z; 
	vmovss	8(%rdx), %xmm20	 # t_24(D)->position.z, _22
 # mahjong.c:252:     return r; 
	movabsq	$4575657221408423936, %rcx	 #, tmp381
	movl	$0x00000000, 16(%rax)	 #, <retval>.m[1][0]
	movq	$0, 48(%rax)	 #, MEM <unsigned long long> [(float *)&<retval> + 48B]
	movq	%rcx, 56(%rax)	 # tmp381, MEM <unsigned long long> [(float *)&<retval> + 56B]
 # mahjong.c:238:     r.m[0][1] = sy * sx * t->scale.y; 
	vmulss	%xmm17, %xmm4, %xmm18	 # _6, tmp235, tmp236
 # mahjong.c:239:     r.m[0][2] = sy * cx * t->scale.z; 
	vmulss	%xmm3, %xmm2, %xmm4	 # _32, _30, tmp237
 # mahjong.c:237:     r.m[0][0] = cy * t->scale.x; 
	vmulss	%xmm0, %xmm19, %xmm1	 # _26, _3, tmp234
 # mahjong.c:252:     return r; 
	vmovss	%xmm21, 28(%rax)	 # _15, <retval>.m[1][3]
	vmovss	%xmm20, 44(%rax)	 # _22, <retval>.m[2][3]
 # mahjong.c:239:     r.m[0][2] = sy * cx * t->scale.z; 
	vmulss	%xmm5, %xmm4, %xmm4	 # _9, tmp237, tmp238
 # mahjong.c:252:     return r; 
	vinsertps	$0x10, (%rdx), %xmm4, %xmm4	 # t_24(D)->position.x, tmp238, tmp239
	vunpcklps	%xmm18, %xmm1, %xmm1	 # tmp236, tmp234, tmp241
	vmovlhps	%xmm4, %xmm1, %xmm1	 # tmp239, tmp241, tmp233
	vmovups	%xmm1, (%rax)	 # tmp233, MEM <vector(4) float> [(float *)&<retval>]
 # mahjong.c:242:     r.m[1][1] = cx * t->scale.y; 
	vmulss	%xmm3, %xmm17, %xmm1	 # _32, _6, tmp243
 # mahjong.c:252:     return r; 
	vmovss	%xmm1, 20(%rax)	 # tmp243, <retval>.m[1][1]
 # mahjong.c:243:     r.m[1][2] = -sx * t->scale.z; 
	vmovss	.LC12(%rip), %xmm1	 #, tmp245
	vxorps	%xmm1, %xmm16, %xmm4	 # tmp245, _36, tmp244
 # mahjong.c:246:     r.m[2][1] = cy * sx * t->scale.y; 
	vmulss	%xmm16, %xmm0, %xmm16	 # _36, _26, tmp250
 # mahjong.c:245:     r.m[2][0] = -sy * t->scale.x; 
	vxorps	%xmm1, %xmm2, %xmm1	 # tmp245, _30, tmp247
 # mahjong.c:247:     r.m[2][2] = cy * cx * t->scale.z; 
	vmulss	%xmm3, %xmm0, %xmm0	 # _32, _26, tmp252
 # mahjong.c:243:     r.m[1][2] = -sx * t->scale.z; 
	vmulss	%xmm5, %xmm4, %xmm4	 # _9, tmp244, tmp246
 # mahjong.c:245:     r.m[2][0] = -sy * t->scale.x; 
	vmulss	%xmm19, %xmm1, %xmm1	 # _3, tmp247, tmp249
 # mahjong.c:246:     r.m[2][1] = cy * sx * t->scale.y; 
	vmulss	%xmm17, %xmm16, %xmm16	 # _6, tmp250, tmp251
 # mahjong.c:247:     r.m[2][2] = cy * cx * t->scale.z; 
	vmulss	%xmm5, %xmm0, %xmm0	 # _9, tmp252, tmp253
 # mahjong.c:252:     return r; 
	vmovss	%xmm4, 24(%rax)	 # tmp246, <retval>.m[1][2]
	vmovss	%xmm1, 32(%rax)	 # tmp249, <retval>.m[2][0]
	vmovss	%xmm16, 36(%rax)	 # tmp251, <retval>.m[2][1]
	vmovss	%xmm0, 40(%rax)	 # tmp253, <retval>.m[2][2]
 # mahjong.c:253: }
	ret	
	.p2align 4
	.p2align 3
.L197:
 # mahjong.c:66:     while (x < -M_PI)
	vmovsd	.LC3(%rip), %xmm5	 #, tmp369
	vcomisd	%xmm1, %xmm5	 # x, tmp369
	jbe	.L156	 #,
	.p2align 4
	.p2align 3
.L158:
 # mahjong.c:67:         x += 2.0 * M_PI;
	vaddsd	%xmm0, %xmm1, %xmm1	 # tmp368, x, x
 # mahjong.c:66:     while (x < -M_PI)
	vcomisd	%xmm1, %xmm5	 # x, tmp369
	ja	.L158	 #,
	jmp	.L156	 #
	.p2align 4
	.p2align 3
.L194:
	vmovsd	.LC3(%rip), %xmm5	 #, tmp369
	vcomisd	%xmm2, %xmm5	 # x, tmp369
	jbe	.L145	 #,
	.p2align 4
	.p2align 3
.L147:
 # mahjong.c:67:         x += 2.0 * M_PI;
	vaddsd	%xmm0, %xmm2, %xmm2	 # tmp368, x, x
 # mahjong.c:66:     while (x < -M_PI)
	vcomisd	%xmm2, %xmm5	 # x, tmp369
	ja	.L147	 #,
 # mahjong.c:71:     if (x > M_PI / 2)
	vcomisd	%xmm21, %xmm2	 # tmp370, x
	ja	.L202	 #,
.L195:
 # mahjong.c:76:     else if (x < -M_PI / 2)
	vmovsd	.LC5(%rip), %xmm0	 #, tmp221
	vcomisd	%xmm2, %xmm0	 # x, tmp221
	jbe	.L196	 #,
 # mahjong.c:78:         x = -M_PI - x;
	vmovsd	.LC3(%rip), %xmm0	 #, tmp222
	vsubsd	%xmm2, %xmm0, %xmm2	 # x, tmp222, x
	jmp	.L150	 #
	.p2align 4
	.p2align 3
.L191:
 # mahjong.c:66:     while (x < -M_PI)
	vmovsd	.LC3(%rip), %xmm5	 #, tmp369
	vcomisd	%xmm3, %xmm5	 # x, tmp369
	jbe	.L134	 #,
	.p2align 4
	.p2align 3
.L136:
 # mahjong.c:67:         x += 2.0 * M_PI;
	vaddsd	%xmm0, %xmm3, %xmm3	 # tmp368, x, x
 # mahjong.c:66:     while (x < -M_PI)
	vcomisd	%xmm3, %xmm5	 # x, tmp369
	ja	.L136	 #,
 # mahjong.c:71:     if (x > M_PI / 2)
	vcomisd	%xmm21, %xmm3	 # tmp370, x
	ja	.L203	 #,
.L192:
 # mahjong.c:76:     else if (x < -M_PI / 2)
	vmovsd	.LC5(%rip), %xmm0	 #, tmp210
	vcomisd	%xmm3, %xmm0	 # x, tmp210
	jbe	.L193	 #,
 # mahjong.c:78:         x = -M_PI - x;
	vmovsd	.LC3(%rip), %xmm0	 #, tmp211
	vsubsd	%xmm3, %xmm0, %xmm0	 # x, tmp211, x
	jmp	.L139	 #
	.p2align 4
	.p2align 3
.L188:
 # mahjong.c:66:     while (x < -M_PI)
	vmovsd	.LC3(%rip), %xmm5	 #, tmp369
	vcomisd	%xmm2, %xmm5	 # x, tmp369
	jbe	.L123	 #,
	.p2align 4
	.p2align 3
.L125:
 # mahjong.c:67:         x += 2.0 * M_PI;
	vaddsd	%xmm0, %xmm2, %xmm2	 # tmp368, x, x
 # mahjong.c:66:     while (x < -M_PI)
	vcomisd	%xmm2, %xmm5	 # x, tmp369
	ja	.L125	 #,
 # mahjong.c:71:     if (x > M_PI / 2)
	vcomisd	%xmm21, %xmm2	 # tmp370, x
	ja	.L204	 #,
.L189:
 # mahjong.c:76:     else if (x < -M_PI / 2)
	vmovsd	.LC5(%rip), %xmm0	 #, tmp200
	vcomisd	%xmm2, %xmm0	 # x, tmp200
	jbe	.L190	 #,
 # mahjong.c:78:         x = -M_PI - x;
	vmovsd	.LC3(%rip), %xmm0	 #, tmp201
	vsubsd	%xmm2, %xmm0, %xmm2	 # x, tmp201, x
	jmp	.L128	 #
	.p2align 4
	.p2align 3
.L190:
 # mahjong.c:83:         1.0 - (x*x/2.0) *
	vmulsd	%xmm2, %xmm2, %xmm2	 # x, x, _212
 # mahjong.c:85:         (1.0 - (x*x/30.0)));
	vmovsd	.LC7(%rip), %xmm18	 #, tmp372
 # mahjong.c:85:         (1.0 - (x*x/30.0)));
	vmovsd	.LC6(%rip), %xmm17	 #, tmp371
 # mahjong.c:84:         (1.0 - (x*x/12.0) *
	vmovsd	.LC8(%rip), %xmm20	 #, tmp373
 # mahjong.c:85:         (1.0 - (x*x/30.0)));
	vdivsd	%xmm17, %xmm2, %xmm16	 # tmp371, _212, tmp354
 # mahjong.c:84:         (1.0 - (x*x/12.0) *
	vdivsd	%xmm20, %xmm2, %xmm0	 # tmp373, _212, tmp358
 # mahjong.c:85:         (1.0 - (x*x/30.0)));
	vsubsd	%xmm16, %xmm18, %xmm16	 # tmp354, tmp372, tmp356
 # mahjong.c:83:         1.0 - (x*x/2.0) *
	vmovsd	.LC9(%rip), %xmm19	 #, tmp374
 # mahjong.c:84:         (1.0 - (x*x/12.0) *
	vmulsd	%xmm0, %xmm16, %xmm16	 # tmp358, tmp356, tmp360
 # mahjong.c:83:         1.0 - (x*x/2.0) *
	vmulsd	%xmm19, %xmm2, %xmm2	 # tmp374, _212, tmp363
 # mahjong.c:84:         (1.0 - (x*x/12.0) *
	vsubsd	%xmm16, %xmm18, %xmm16	 # tmp360, tmp372, tmp361
 # mahjong.c:83:         1.0 - (x*x/2.0) *
	vmulsd	%xmm2, %xmm16, %xmm16	 # tmp363, tmp361, tmp365
 # mahjong.c:82:     double result =
	vsubsd	%xmm16, %xmm18, %xmm16	 # tmp365, tmp372, iftmp.0_131
	jmp	.L167	 #
	.p2align 4
	.p2align 3
.L193:
 # mahjong.c:83:         1.0 - (x*x/2.0) *
	vmulsd	%xmm3, %xmm3, %xmm0	 # x, x, _190
 # mahjong.c:85:         (1.0 - (x*x/30.0)));
	vdivsd	%xmm17, %xmm0, %xmm3	 # tmp371, _190, tmp326
 # mahjong.c:84:         (1.0 - (x*x/12.0) *
	vdivsd	%xmm20, %xmm0, %xmm2	 # tmp373, _190, tmp330
 # mahjong.c:85:         (1.0 - (x*x/30.0)));
	vsubsd	%xmm3, %xmm18, %xmm3	 # tmp326, tmp372, tmp328
 # mahjong.c:83:         1.0 - (x*x/2.0) *
	vmulsd	%xmm19, %xmm0, %xmm0	 # tmp374, _190, tmp335
 # mahjong.c:84:         (1.0 - (x*x/12.0) *
	vmulsd	%xmm2, %xmm3, %xmm3	 # tmp330, tmp328, tmp332
 # mahjong.c:84:         (1.0 - (x*x/12.0) *
	vsubsd	%xmm3, %xmm18, %xmm3	 # tmp332, tmp372, tmp333
 # mahjong.c:83:         1.0 - (x*x/2.0) *
	vmulsd	%xmm0, %xmm3, %xmm3	 # tmp335, tmp333, tmp337
 # mahjong.c:82:     double result =
	vsubsd	%xmm3, %xmm18, %xmm3	 # tmp337, tmp372, iftmp.0_111
	jmp	.L166	 #
	.p2align 4
	.p2align 3
.L196:
 # mahjong.c:83:         1.0 - (x*x/2.0) *
	vmulsd	%xmm2, %xmm2, %xmm2	 # x, x, _168
 # mahjong.c:85:         (1.0 - (x*x/30.0)));
	vdivsd	%xmm17, %xmm2, %xmm0	 # tmp371, _168, tmp298
 # mahjong.c:84:         (1.0 - (x*x/12.0) *
	vdivsd	%xmm20, %xmm2, %xmm5	 # tmp373, _168, tmp302
 # mahjong.c:85:         (1.0 - (x*x/30.0)));
	vsubsd	%xmm0, %xmm18, %xmm0	 # tmp298, tmp372, tmp300
 # mahjong.c:83:         1.0 - (x*x/2.0) *
	vmulsd	%xmm19, %xmm2, %xmm2	 # tmp374, _168, tmp307
 # mahjong.c:84:         (1.0 - (x*x/12.0) *
	vmulsd	%xmm5, %xmm0, %xmm0	 # tmp302, tmp300, tmp304
 # mahjong.c:84:         (1.0 - (x*x/12.0) *
	vsubsd	%xmm0, %xmm18, %xmm0	 # tmp304, tmp372, tmp305
 # mahjong.c:83:         1.0 - (x*x/2.0) *
	vmulsd	%xmm2, %xmm0, %xmm2	 # tmp307, tmp305, tmp309
 # mahjong.c:82:     double result =
	vsubsd	%xmm2, %xmm18, %xmm2	 # tmp309, tmp372, iftmp.0_91
	jmp	.L165	 #
	.p2align 4
	.p2align 3
.L199:
 # mahjong.c:83:         1.0 - (x*x/2.0) *
	vmulsd	%xmm1, %xmm1, %xmm1	 # x, x, _35
 # mahjong.c:85:         (1.0 - (x*x/30.0)));
	vdivsd	%xmm17, %xmm1, %xmm0	 # tmp371, _35, tmp255
 # mahjong.c:84:         (1.0 - (x*x/12.0) *
	vdivsd	%xmm20, %xmm1, %xmm20	 # tmp373, _35, tmp259
 # mahjong.c:85:         (1.0 - (x*x/30.0)));
	vsubsd	%xmm0, %xmm18, %xmm0	 # tmp255, tmp372, tmp257
 # mahjong.c:83:         1.0 - (x*x/2.0) *
	vmulsd	%xmm19, %xmm1, %xmm1	 # tmp374, _35, tmp264
 # mahjong.c:84:         (1.0 - (x*x/12.0) *
	vmulsd	%xmm20, %xmm0, %xmm0	 # tmp259, tmp257, tmp261
 # mahjong.c:84:         (1.0 - (x*x/12.0) *
	vsubsd	%xmm0, %xmm18, %xmm0	 # tmp261, tmp372, tmp262
 # mahjong.c:83:         1.0 - (x*x/2.0) *
	vmulsd	%xmm1, %xmm0, %xmm0	 # tmp264, tmp262, tmp266
 # mahjong.c:82:     double result =
	vsubsd	%xmm0, %xmm18, %xmm0	 # tmp266, tmp372, iftmp.0_71
	jmp	.L164	 #
	.seh_endproc
	.p2align 4
	.globl	translation_matrix
	.def	translation_matrix;	.scl	2;	.type	32;	.endef
	.seh_proc	translation_matrix
translation_matrix:
	.seh_endprologue
 # mahjong.c:264:     return r; 
	movabsq	$4575657221408423936, %rdx	 #, tmp88
 # mahjong.c:255: matrix translation_matrix(f32 x, f32 y, f32 z) { 
	movq	%rcx, %rax	 # tmp92, .result_ptr
 # mahjong.c:264:     return r; 
	vmovss	%xmm1, 12(%rcx)	 # tmp93, <retval>.m[0][3]
	movq	$1065353216, (%rcx)	 #, MEM <vector(2) float> [(float *)&<retval>]
	vmovss	%xmm2, 28(%rcx)	 # tmp94, <retval>.m[1][3]
	movl	$0x00000000, 8(%rcx)	 #, <retval>.m[0][2]
	movq	%rdx, 16(%rcx)	 # tmp88, MEM <unsigned long long> [(float *)&<retval> + 16B]
	movl	$0x00000000, 24(%rcx)	 #, <retval>.m[1][2]
	vmovss	%xmm3, 44(%rcx)	 # tmp95, <retval>.m[2][3]
	movq	$0, 32(%rcx)	 #, MEM <unsigned long long> [(float *)&<retval> + 32B]
	movl	$0x3f800000, 40(%rcx)	 #, <retval>.m[2][2]
	movq	$0, 48(%rcx)	 #, MEM <unsigned long long> [(float *)&<retval> + 48B]
	movq	%rdx, 56(%rcx)	 # tmp88, MEM <unsigned long long> [(float *)&<retval> + 56B]
 # mahjong.c:265: } 
	ret	
	.seh_endproc
	.p2align 4
	.globl	rotation_x_matrix
	.def	rotation_x_matrix;	.scl	2;	.type	32;	.endef
	.seh_proc	rotation_x_matrix
rotation_x_matrix:
	.seh_endprologue
 # mahjong.c:92:     return cos(x-M_PI_2);
	vmovsd	.LC4(%rip), %xmm17	 #, tmp218
 # mahjong.c:63:     while (x > M_PI)
	vmovsd	.LC1(%rip), %xmm3	 #, tmp215
	vmovsd	.LC2(%rip), %xmm2	 #, tmp216
 # mahjong.c:100:     return (f32)sin((double)x);
	vcvtss2sd	%xmm1, %xmm1, %xmm1	 # tmp224, x
 # mahjong.c:267: matrix rotation_x_matrix(f32 angle) { 
	movq	%rcx, %rax	 # tmp223, .result_ptr
 # mahjong.c:92:     return cos(x-M_PI_2);
	vsubsd	%xmm17, %xmm1, %xmm0	 # tmp218, x, x
 # mahjong.c:63:     while (x > M_PI)
	vcomisd	%xmm3, %xmm0	 # tmp215, x
	jbe	.L241	 #,
	.p2align 4
	.p2align 3
.L209:
 # mahjong.c:64:         x -= 2.0 * M_PI;
	vsubsd	%xmm2, %xmm0, %xmm0	 # tmp216, x, x
 # mahjong.c:63:     while (x > M_PI)
	vcomisd	%xmm3, %xmm0	 # tmp215, x
	ja	.L209	 #,
.L210:
 # mahjong.c:71:     if (x > M_PI / 2)
	vcomisd	%xmm17, %xmm0	 # tmp218, x
	jbe	.L242	 #,
	.p2align 4
	.p2align 3
.L249:
 # mahjong.c:73:         x = M_PI - x;
	vsubsd	%xmm0, %xmm3, %xmm0	 # x, tmp215, x
.L215:
 # mahjong.c:83:         1.0 - (x*x/2.0) *
	vmulsd	%xmm0, %xmm0, %xmm0	 # x, x, _90
 # mahjong.c:85:         (1.0 - (x*x/30.0)));
	vmovsd	.LC7(%rip), %xmm16	 #, tmp220
 # mahjong.c:85:         (1.0 - (x*x/30.0)));
	vmovsd	.LC6(%rip), %xmm5	 #, tmp219
 # mahjong.c:84:         (1.0 - (x*x/12.0) *
	vmovsd	.LC8(%rip), %xmm19	 #, tmp221
 # mahjong.c:85:         (1.0 - (x*x/30.0)));
	vdivsd	%xmm5, %xmm0, %xmm2	 # tmp219, _90, tmp187
 # mahjong.c:84:         (1.0 - (x*x/12.0) *
	vdivsd	%xmm19, %xmm0, %xmm4	 # tmp221, _90, tmp191
 # mahjong.c:85:         (1.0 - (x*x/30.0)));
	vsubsd	%xmm2, %xmm16, %xmm2	 # tmp187, tmp220, tmp189
 # mahjong.c:83:         1.0 - (x*x/2.0) *
	vmovsd	.LC9(%rip), %xmm20	 #, tmp222
 # mahjong.c:84:         (1.0 - (x*x/12.0) *
	vmulsd	%xmm4, %xmm2, %xmm2	 # tmp191, tmp189, tmp193
 # mahjong.c:83:         1.0 - (x*x/2.0) *
	vmulsd	%xmm20, %xmm0, %xmm0	 # tmp222, _90, tmp196
 # mahjong.c:84:         (1.0 - (x*x/12.0) *
	vsubsd	%xmm2, %xmm16, %xmm2	 # tmp193, tmp220, tmp194
 # mahjong.c:83:         1.0 - (x*x/2.0) *
	vmulsd	%xmm0, %xmm2, %xmm0	 # tmp196, tmp194, tmp198
 # mahjong.c:82:     double result =
	vsubsd	%xmm0, %xmm16, %xmm0	 # tmp198, tmp220, result
 # mahjong.c:87:     return negate ? -result : result;
	vxorpd	.LC10(%rip), %xmm0, %xmm0	 #, result, iftmp.0_64
.L230:
 # mahjong.c:100:     return (f32)sin((double)x);
	vcvtsd2ss	%xmm0, %xmm0, %xmm18	 # iftmp.0_64, _9
	vmovsd	.LC2(%rip), %xmm2	 #, tmp216
 # mahjong.c:63:     while (x > M_PI)
	vcomisd	%xmm3, %xmm1	 # tmp215, x
	jbe	.L244	 #,
	.p2align 4
	.p2align 3
.L220:
 # mahjong.c:64:         x -= 2.0 * M_PI;
	vsubsd	%xmm2, %xmm1, %xmm1	 # tmp216, x, x
 # mahjong.c:63:     while (x > M_PI)
	vcomisd	%xmm3, %xmm1	 # tmp215, x
	ja	.L220	 #,
.L221:
 # mahjong.c:71:     if (x > M_PI / 2)
	vcomisd	%xmm17, %xmm1	 # tmp218, x
	ja	.L248	 #,
 # mahjong.c:76:     else if (x < -M_PI / 2)
	vmovsd	.LC5(%rip), %xmm0	 #, tmp148
	vcomisd	%xmm1, %xmm0	 # x, tmp148
	jbe	.L246	 #,
 # mahjong.c:78:         x = -M_PI - x;
	vmovsd	.LC3(%rip), %xmm3	 #, tmp149
.L248:
	vsubsd	%xmm1, %xmm3, %xmm3	 # x, tmp149, x
 # mahjong.c:83:         1.0 - (x*x/2.0) *
	vmulsd	%xmm3, %xmm3, %xmm3	 # x, x, _28
 # mahjong.c:85:         (1.0 - (x*x/30.0)));
	vdivsd	%xmm5, %xmm3, %xmm0	 # tmp219, _28, tmp159
 # mahjong.c:84:         (1.0 - (x*x/12.0) *
	vdivsd	%xmm19, %xmm3, %xmm19	 # tmp221, _28, tmp163
 # mahjong.c:85:         (1.0 - (x*x/30.0)));
	vsubsd	%xmm0, %xmm16, %xmm0	 # tmp159, tmp220, tmp161
 # mahjong.c:83:         1.0 - (x*x/2.0) *
	vmulsd	%xmm20, %xmm3, %xmm3	 # tmp222, _28, tmp168
 # mahjong.c:84:         (1.0 - (x*x/12.0) *
	vmulsd	%xmm19, %xmm0, %xmm0	 # tmp163, tmp161, tmp165
 # mahjong.c:84:         (1.0 - (x*x/12.0) *
	vsubsd	%xmm0, %xmm16, %xmm0	 # tmp165, tmp220, tmp166
 # mahjong.c:83:         1.0 - (x*x/2.0) *
	vmulsd	%xmm3, %xmm0, %xmm0	 # tmp168, tmp166, tmp170
 # mahjong.c:82:     double result =
	vsubsd	%xmm0, %xmm16, %xmm0	 # tmp170, tmp220, result
 # mahjong.c:87:     return negate ? -result : result;
	vxorpd	.LC10(%rip), %xmm0, %xmm0	 #, result, iftmp.0_44
.L229:
 # mahjong.c:277:     return r; 
	vmovss	.LC20(%rip), %xmm1	 #, tmp150
 # mahjong.c:96:     return (f32)cos((double)x);
	vcvtsd2ss	%xmm0, %xmm0, %xmm0	 # iftmp.0_44, _5
 # mahjong.c:277:     return r; 
	movl	$0x00000000, 16(%rax)	 #, <retval>.m[1][0]
	movq	$0, 28(%rax)	 #, MEM <vector(2) float> [(float *)&<retval> + 28B]
	vmovups	%xmm1, (%rax)	 # tmp150, MEM <vector(4) float> [(float *)&<retval>]
 # mahjong.c:273:     r.m[1][2] = -s; 
	vxorps	.LC12(%rip), %xmm18, %xmm1	 #, _9, tmp153
 # mahjong.c:277:     return r; 
	movl	$0x3f800000, 60(%rax)	 #, <retval>.m[3][3]
	vunpcklps	%xmm1, %xmm0, %xmm1	 # tmp153, _5, tmp152
	vunpcklps	%xmm0, %xmm18, %xmm0	 # _5, _9, tmp156
	vmovlps	%xmm0, 36(%rax)	 # tmp156, MEM <vector(2) float> [(float *)&<retval> + 36B]
	vxorps	%xmm0, %xmm0, %xmm0	 # tmp157
	vmovlps	%xmm1, 20(%rax)	 # tmp152, MEM <vector(2) float> [(float *)&<retval> + 20B]
	vmovups	%xmm0, 44(%rax)	 # tmp157, MEM <vector(4) float> [(float *)&<retval> + 44B]
 # mahjong.c:278: } 
	ret	
	.p2align 4
	.p2align 3
.L244:
 # mahjong.c:66:     while (x < -M_PI)
	vmovsd	.LC3(%rip), %xmm4	 #, tmp217
	vcomisd	%xmm1, %xmm4	 # x, tmp217
	jbe	.L221	 #,
	.p2align 4
	.p2align 3
.L223:
 # mahjong.c:67:         x += 2.0 * M_PI;
	vaddsd	%xmm2, %xmm1, %xmm1	 # tmp216, x, x
 # mahjong.c:66:     while (x < -M_PI)
	vcomisd	%xmm1, %xmm4	 # x, tmp217
	ja	.L223	 #,
	jmp	.L221	 #
	.p2align 4
	.p2align 3
.L241:
	vmovsd	.LC3(%rip), %xmm4	 #, tmp217
	vcomisd	%xmm0, %xmm4	 # x, tmp217
	jbe	.L210	 #,
	.p2align 4
	.p2align 3
.L212:
 # mahjong.c:67:         x += 2.0 * M_PI;
	vaddsd	%xmm2, %xmm0, %xmm0	 # tmp216, x, x
 # mahjong.c:66:     while (x < -M_PI)
	vcomisd	%xmm0, %xmm4	 # x, tmp217
	ja	.L212	 #,
 # mahjong.c:71:     if (x > M_PI / 2)
	vcomisd	%xmm17, %xmm0	 # tmp218, x
	ja	.L249	 #,
.L242:
 # mahjong.c:76:     else if (x < -M_PI / 2)
	vmovsd	.LC5(%rip), %xmm2	 #, tmp138
	vcomisd	%xmm0, %xmm2	 # x, tmp138
	jbe	.L243	 #,
 # mahjong.c:78:         x = -M_PI - x;
	vmovsd	.LC3(%rip), %xmm2	 #, tmp139
	vsubsd	%xmm0, %xmm2, %xmm0	 # x, tmp139, x
	jmp	.L215	 #
	.p2align 4
	.p2align 3
.L243:
 # mahjong.c:83:         1.0 - (x*x/2.0) *
	vmulsd	%xmm0, %xmm0, %xmm0	 # x, x, _101
 # mahjong.c:85:         (1.0 - (x*x/30.0)));
	vmovsd	.LC7(%rip), %xmm16	 #, tmp220
 # mahjong.c:85:         (1.0 - (x*x/30.0)));
	vmovsd	.LC6(%rip), %xmm5	 #, tmp219
 # mahjong.c:84:         (1.0 - (x*x/12.0) *
	vmovsd	.LC8(%rip), %xmm19	 #, tmp221
 # mahjong.c:85:         (1.0 - (x*x/30.0)));
	vdivsd	%xmm5, %xmm0, %xmm2	 # tmp219, _101, tmp202
 # mahjong.c:84:         (1.0 - (x*x/12.0) *
	vdivsd	%xmm19, %xmm0, %xmm4	 # tmp221, _101, tmp206
 # mahjong.c:85:         (1.0 - (x*x/30.0)));
	vsubsd	%xmm2, %xmm16, %xmm2	 # tmp202, tmp220, tmp204
 # mahjong.c:83:         1.0 - (x*x/2.0) *
	vmovsd	.LC9(%rip), %xmm20	 #, tmp222
 # mahjong.c:84:         (1.0 - (x*x/12.0) *
	vmulsd	%xmm4, %xmm2, %xmm2	 # tmp206, tmp204, tmp208
 # mahjong.c:83:         1.0 - (x*x/2.0) *
	vmulsd	%xmm20, %xmm0, %xmm0	 # tmp222, _101, tmp211
 # mahjong.c:84:         (1.0 - (x*x/12.0) *
	vsubsd	%xmm2, %xmm16, %xmm2	 # tmp208, tmp220, tmp209
 # mahjong.c:83:         1.0 - (x*x/2.0) *
	vmulsd	%xmm0, %xmm2, %xmm0	 # tmp211, tmp209, tmp213
 # mahjong.c:82:     double result =
	vsubsd	%xmm0, %xmm16, %xmm0	 # tmp213, tmp220, iftmp.0_64
	jmp	.L230	 #
	.p2align 4
	.p2align 3
.L246:
 # mahjong.c:83:         1.0 - (x*x/2.0) *
	vmulsd	%xmm1, %xmm1, %xmm1	 # x, x, _79
 # mahjong.c:85:         (1.0 - (x*x/30.0)));
	vdivsd	%xmm5, %xmm1, %xmm0	 # tmp219, _79, tmp174
 # mahjong.c:84:         (1.0 - (x*x/12.0) *
	vdivsd	%xmm19, %xmm1, %xmm19	 # tmp221, _79, tmp178
 # mahjong.c:85:         (1.0 - (x*x/30.0)));
	vsubsd	%xmm0, %xmm16, %xmm0	 # tmp174, tmp220, tmp176
 # mahjong.c:83:         1.0 - (x*x/2.0) *
	vmulsd	%xmm20, %xmm1, %xmm1	 # tmp222, _79, tmp183
 # mahjong.c:84:         (1.0 - (x*x/12.0) *
	vmulsd	%xmm19, %xmm0, %xmm0	 # tmp178, tmp176, tmp180
 # mahjong.c:84:         (1.0 - (x*x/12.0) *
	vsubsd	%xmm0, %xmm16, %xmm0	 # tmp180, tmp220, tmp181
 # mahjong.c:83:         1.0 - (x*x/2.0) *
	vmulsd	%xmm1, %xmm0, %xmm0	 # tmp183, tmp181, tmp185
 # mahjong.c:82:     double result =
	vsubsd	%xmm0, %xmm16, %xmm0	 # tmp185, tmp220, iftmp.0_44
	jmp	.L229	 #
	.seh_endproc
	.p2align 4
	.globl	rotation_y_matrix
	.def	rotation_y_matrix;	.scl	2;	.type	32;	.endef
	.seh_proc	rotation_y_matrix
rotation_y_matrix:
	.seh_endprologue
 # mahjong.c:92:     return cos(x-M_PI_2);
	vmovsd	.LC4(%rip), %xmm17	 #, tmp213
 # mahjong.c:63:     while (x > M_PI)
	vmovsd	.LC1(%rip), %xmm3	 #, tmp210
	vmovsd	.LC2(%rip), %xmm2	 #, tmp211
 # mahjong.c:100:     return (f32)sin((double)x);
	vcvtss2sd	%xmm1, %xmm1, %xmm1	 # tmp219, x
 # mahjong.c:280: matrix rotation_y_matrix(f32 angle) { 
	movq	%rcx, %rax	 # tmp218, .result_ptr
 # mahjong.c:92:     return cos(x-M_PI_2);
	vsubsd	%xmm17, %xmm1, %xmm0	 # tmp213, x, x
 # mahjong.c:63:     while (x > M_PI)
	vcomisd	%xmm3, %xmm0	 # tmp210, x
	jbe	.L285	 #,
	.p2align 4
	.p2align 3
.L253:
 # mahjong.c:64:         x -= 2.0 * M_PI;
	vsubsd	%xmm2, %xmm0, %xmm0	 # tmp211, x, x
 # mahjong.c:63:     while (x > M_PI)
	vcomisd	%xmm3, %xmm0	 # tmp210, x
	ja	.L253	 #,
.L254:
 # mahjong.c:71:     if (x > M_PI / 2)
	vcomisd	%xmm17, %xmm0	 # tmp213, x
	jbe	.L286	 #,
	.p2align 4
	.p2align 3
.L293:
 # mahjong.c:73:         x = M_PI - x;
	vsubsd	%xmm0, %xmm3, %xmm0	 # x, tmp210, x
.L259:
 # mahjong.c:83:         1.0 - (x*x/2.0) *
	vmulsd	%xmm0, %xmm0, %xmm0	 # x, x, _90
 # mahjong.c:85:         (1.0 - (x*x/30.0)));
	vmovsd	.LC7(%rip), %xmm16	 #, tmp215
 # mahjong.c:85:         (1.0 - (x*x/30.0)));
	vmovsd	.LC6(%rip), %xmm5	 #, tmp214
 # mahjong.c:84:         (1.0 - (x*x/12.0) *
	vmovsd	.LC8(%rip), %xmm18	 #, tmp216
 # mahjong.c:85:         (1.0 - (x*x/30.0)));
	vdivsd	%xmm5, %xmm0, %xmm2	 # tmp214, _90, tmp182
 # mahjong.c:84:         (1.0 - (x*x/12.0) *
	vdivsd	%xmm18, %xmm0, %xmm4	 # tmp216, _90, tmp186
 # mahjong.c:85:         (1.0 - (x*x/30.0)));
	vsubsd	%xmm2, %xmm16, %xmm2	 # tmp182, tmp215, tmp184
 # mahjong.c:83:         1.0 - (x*x/2.0) *
	vmovsd	.LC9(%rip), %xmm19	 #, tmp217
 # mahjong.c:84:         (1.0 - (x*x/12.0) *
	vmulsd	%xmm4, %xmm2, %xmm2	 # tmp186, tmp184, tmp188
 # mahjong.c:83:         1.0 - (x*x/2.0) *
	vmulsd	%xmm19, %xmm0, %xmm0	 # tmp217, _90, tmp191
 # mahjong.c:84:         (1.0 - (x*x/12.0) *
	vsubsd	%xmm2, %xmm16, %xmm2	 # tmp188, tmp215, tmp189
 # mahjong.c:83:         1.0 - (x*x/2.0) *
	vmulsd	%xmm0, %xmm2, %xmm0	 # tmp191, tmp189, tmp193
 # mahjong.c:82:     double result =
	vsubsd	%xmm0, %xmm16, %xmm0	 # tmp193, tmp215, result
 # mahjong.c:87:     return negate ? -result : result;
	vxorpd	.LC10(%rip), %xmm0, %xmm0	 #, result, iftmp.0_64
.L274:
 # mahjong.c:100:     return (f32)sin((double)x);
	vcvtsd2ss	%xmm0, %xmm0, %xmm0	 # iftmp.0_64, _9
	vmovsd	.LC2(%rip), %xmm2	 #, tmp211
 # mahjong.c:63:     while (x > M_PI)
	vcomisd	%xmm3, %xmm1	 # tmp210, x
	jbe	.L288	 #,
	.p2align 4
	.p2align 3
.L264:
 # mahjong.c:64:         x -= 2.0 * M_PI;
	vsubsd	%xmm2, %xmm1, %xmm1	 # tmp211, x, x
 # mahjong.c:63:     while (x > M_PI)
	vcomisd	%xmm3, %xmm1	 # tmp210, x
	ja	.L264	 #,
.L265:
 # mahjong.c:71:     if (x > M_PI / 2)
	vcomisd	%xmm17, %xmm1	 # tmp213, x
	ja	.L292	 #,
 # mahjong.c:76:     else if (x < -M_PI / 2)
	vmovsd	.LC5(%rip), %xmm2	 #, tmp146
	vcomisd	%xmm1, %xmm2	 # x, tmp146
	jbe	.L290	 #,
 # mahjong.c:78:         x = -M_PI - x;
	vmovsd	.LC3(%rip), %xmm3	 #, tmp147
.L292:
	vsubsd	%xmm1, %xmm3, %xmm3	 # x, tmp147, x
 # mahjong.c:83:         1.0 - (x*x/2.0) *
	vmulsd	%xmm3, %xmm3, %xmm3	 # x, x, _28
 # mahjong.c:85:         (1.0 - (x*x/30.0)));
	vdivsd	%xmm5, %xmm3, %xmm1	 # tmp214, _28, tmp154
 # mahjong.c:84:         (1.0 - (x*x/12.0) *
	vdivsd	%xmm18, %xmm3, %xmm18	 # tmp216, _28, tmp158
 # mahjong.c:85:         (1.0 - (x*x/30.0)));
	vsubsd	%xmm1, %xmm16, %xmm1	 # tmp154, tmp215, tmp156
 # mahjong.c:83:         1.0 - (x*x/2.0) *
	vmulsd	%xmm19, %xmm3, %xmm3	 # tmp217, _28, tmp163
 # mahjong.c:84:         (1.0 - (x*x/12.0) *
	vmulsd	%xmm18, %xmm1, %xmm1	 # tmp158, tmp156, tmp160
 # mahjong.c:84:         (1.0 - (x*x/12.0) *
	vsubsd	%xmm1, %xmm16, %xmm1	 # tmp160, tmp215, tmp161
 # mahjong.c:83:         1.0 - (x*x/2.0) *
	vmulsd	%xmm3, %xmm1, %xmm1	 # tmp163, tmp161, tmp165
 # mahjong.c:82:     double result =
	vsubsd	%xmm1, %xmm16, %xmm1	 # tmp165, tmp215, result
 # mahjong.c:87:     return negate ? -result : result;
	vxorpd	.LC10(%rip), %xmm1, %xmm1	 #, result, iftmp.0_44
.L273:
 # mahjong.c:290:     return r; 
	vmovss	%xmm0, 8(%rax)	 # _9, <retval>.m[0][2]
 # mahjong.c:287:     r.m[2][0] = -s; 
	vxorps	.LC12(%rip), %xmm0, %xmm0	 #, _9, tmp150
 # mahjong.c:96:     return (f32)cos((double)x);
	vcvtsd2ss	%xmm1, %xmm1, %xmm1	 # iftmp.0_44, _5
 # mahjong.c:290:     return r; 
	movl	$0x00000000, 4(%rax)	 #, <retval>.m[0][1]
	movq	$0, 12(%rax)	 #, MEM <unsigned long long> [(float *)&<retval> + 12B]
	movq	$1065353216, 20(%rax)	 #, MEM <unsigned long long> [(float *)&<retval> + 20B]
	movl	$0x00000000, 28(%rax)	 #, <retval>.m[1][3]
	movl	$0x00000000, 36(%rax)	 #, <retval>.m[2][1]
	movq	$0, 44(%rax)	 #, MEM <unsigned long long> [(float *)&<retval> + 44B]
	movq	$0, 52(%rax)	 #, MEM <unsigned long long> [(float *)&<retval> + 52B]
	movl	$0x3f800000, 60(%rax)	 #, <retval>.m[3][3]
	vmovss	%xmm1, (%rax)	 # _5, <retval>.m[0][0]
	vmovss	%xmm1, 40(%rax)	 # _5, <retval>.m[2][2]
	vmovss	%xmm0, 32(%rax)	 # tmp150, <retval>.m[2][0]
 # mahjong.c:291: }
	ret	
	.p2align 4
	.p2align 3
.L288:
 # mahjong.c:66:     while (x < -M_PI)
	vmovsd	.LC3(%rip), %xmm4	 #, tmp212
	vcomisd	%xmm1, %xmm4	 # x, tmp212
	jbe	.L265	 #,
	.p2align 4
	.p2align 3
.L267:
 # mahjong.c:67:         x += 2.0 * M_PI;
	vaddsd	%xmm2, %xmm1, %xmm1	 # tmp211, x, x
 # mahjong.c:66:     while (x < -M_PI)
	vcomisd	%xmm1, %xmm4	 # x, tmp212
	ja	.L267	 #,
	jmp	.L265	 #
	.p2align 4
	.p2align 3
.L285:
	vmovsd	.LC3(%rip), %xmm4	 #, tmp212
	vcomisd	%xmm0, %xmm4	 # x, tmp212
	jbe	.L254	 #,
	.p2align 4
	.p2align 3
.L256:
 # mahjong.c:67:         x += 2.0 * M_PI;
	vaddsd	%xmm2, %xmm0, %xmm0	 # tmp211, x, x
 # mahjong.c:66:     while (x < -M_PI)
	vcomisd	%xmm0, %xmm4	 # x, tmp212
	ja	.L256	 #,
 # mahjong.c:71:     if (x > M_PI / 2)
	vcomisd	%xmm17, %xmm0	 # tmp213, x
	ja	.L293	 #,
.L286:
 # mahjong.c:76:     else if (x < -M_PI / 2)
	vmovsd	.LC5(%rip), %xmm2	 #, tmp136
	vcomisd	%xmm0, %xmm2	 # x, tmp136
	jbe	.L287	 #,
 # mahjong.c:78:         x = -M_PI - x;
	vmovsd	.LC3(%rip), %xmm2	 #, tmp137
	vsubsd	%xmm0, %xmm2, %xmm0	 # x, tmp137, x
	jmp	.L259	 #
	.p2align 4
	.p2align 3
.L287:
 # mahjong.c:83:         1.0 - (x*x/2.0) *
	vmulsd	%xmm0, %xmm0, %xmm0	 # x, x, _101
 # mahjong.c:85:         (1.0 - (x*x/30.0)));
	vmovsd	.LC7(%rip), %xmm16	 #, tmp215
 # mahjong.c:85:         (1.0 - (x*x/30.0)));
	vmovsd	.LC6(%rip), %xmm5	 #, tmp214
 # mahjong.c:84:         (1.0 - (x*x/12.0) *
	vmovsd	.LC8(%rip), %xmm18	 #, tmp216
 # mahjong.c:85:         (1.0 - (x*x/30.0)));
	vdivsd	%xmm5, %xmm0, %xmm2	 # tmp214, _101, tmp197
 # mahjong.c:84:         (1.0 - (x*x/12.0) *
	vdivsd	%xmm18, %xmm0, %xmm4	 # tmp216, _101, tmp201
 # mahjong.c:85:         (1.0 - (x*x/30.0)));
	vsubsd	%xmm2, %xmm16, %xmm2	 # tmp197, tmp215, tmp199
 # mahjong.c:83:         1.0 - (x*x/2.0) *
	vmovsd	.LC9(%rip), %xmm19	 #, tmp217
 # mahjong.c:84:         (1.0 - (x*x/12.0) *
	vmulsd	%xmm4, %xmm2, %xmm2	 # tmp201, tmp199, tmp203
 # mahjong.c:83:         1.0 - (x*x/2.0) *
	vmulsd	%xmm19, %xmm0, %xmm0	 # tmp217, _101, tmp206
 # mahjong.c:84:         (1.0 - (x*x/12.0) *
	vsubsd	%xmm2, %xmm16, %xmm2	 # tmp203, tmp215, tmp204
 # mahjong.c:83:         1.0 - (x*x/2.0) *
	vmulsd	%xmm0, %xmm2, %xmm0	 # tmp206, tmp204, tmp208
 # mahjong.c:82:     double result =
	vsubsd	%xmm0, %xmm16, %xmm0	 # tmp208, tmp215, iftmp.0_64
	jmp	.L274	 #
	.p2align 4
	.p2align 3
.L290:
 # mahjong.c:83:         1.0 - (x*x/2.0) *
	vmulsd	%xmm1, %xmm1, %xmm2	 # x, x, _79
 # mahjong.c:85:         (1.0 - (x*x/30.0)));
	vdivsd	%xmm5, %xmm2, %xmm5	 # tmp214, _79, tmp169
 # mahjong.c:84:         (1.0 - (x*x/12.0) *
	vdivsd	%xmm18, %xmm2, %xmm18	 # tmp216, _79, tmp173
 # mahjong.c:85:         (1.0 - (x*x/30.0)));
	vsubsd	%xmm5, %xmm16, %xmm1	 # tmp169, tmp215, tmp171
 # mahjong.c:83:         1.0 - (x*x/2.0) *
	vmulsd	%xmm19, %xmm2, %xmm2	 # tmp217, _79, tmp178
 # mahjong.c:84:         (1.0 - (x*x/12.0) *
	vmulsd	%xmm18, %xmm1, %xmm1	 # tmp173, tmp171, tmp175
 # mahjong.c:84:         (1.0 - (x*x/12.0) *
	vsubsd	%xmm1, %xmm16, %xmm1	 # tmp175, tmp215, tmp176
 # mahjong.c:83:         1.0 - (x*x/2.0) *
	vmulsd	%xmm2, %xmm1, %xmm1	 # tmp178, tmp176, tmp180
 # mahjong.c:82:     double result =
	vsubsd	%xmm1, %xmm16, %xmm1	 # tmp180, tmp215, iftmp.0_44
	jmp	.L273	 #
	.seh_endproc
	.p2align 4
	.globl	transform_to_view_matrix
	.def	transform_to_view_matrix;	.scl	2;	.type	32;	.endef
	.seh_proc	transform_to_view_matrix
transform_to_view_matrix:
	subq	$136, %rsp	 #,
	.seh_stackalloc	136
	.seh_endprologue
 # mahjong.c:92:     return cos(x-M_PI_2);
	vmovsd	.LC4(%rip), %xmm20	 #, tmp480
 # mahjong.c:63:     while (x > M_PI)
	vmovsd	.LC1(%rip), %xmm3	 #, tmp477
	vmovsd	.LC2(%rip), %xmm0	 #, tmp478
 # mahjong.c:295:     matrix t = translation_matrix(
	vmovss	.LC12(%rip), %xmm19	 #, tmp476
 # mahjong.c:300:     matrix rx = rotation_x_matrix(-cam->rotation.x);
	vmovss	12(%rdx), %xmm1	 # cam_12(D)->rotation.x, cam_12(D)->rotation.x
 # mahjong.c:295:     matrix t = translation_matrix(
	vmovss	8(%rdx), %xmm17	 # cam_12(D)->position.z, cam_12(D)->position.z
	vmovss	4(%rdx), %xmm16	 # cam_12(D)->position.y, cam_12(D)->position.y
 # mahjong.c:294: {
	movq	%rcx, %rax	 # tmp485, .result_ptr
 # mahjong.c:295:     matrix t = translation_matrix(
	vmovss	(%rdx), %xmm18	 # cam_12(D)->position.x, cam_12(D)->position.x
 # mahjong.c:300:     matrix rx = rotation_x_matrix(-cam->rotation.x);
	vxorps	%xmm19, %xmm1, %xmm1	 # tmp476, cam_12(D)->rotation.x, tmp265
 # mahjong.c:295:     matrix t = translation_matrix(
	vxorps	%xmm19, %xmm17, %xmm17	 # tmp476, cam_12(D)->position.z, _2
	vxorps	%xmm19, %xmm16, %xmm16	 # tmp476, cam_12(D)->position.y, _4
 # mahjong.c:100:     return (f32)sin((double)x);
	vcvtss2sd	%xmm1, %xmm1, %xmm1	 # tmp265, x
 # mahjong.c:295:     matrix t = translation_matrix(
	vxorps	%xmm19, %xmm18, %xmm18	 # tmp476, cam_12(D)->position.x, _6
 # mahjong.c:92:     return cos(x-M_PI_2);
	vsubsd	%xmm20, %xmm1, %xmm2	 # tmp480, x, x
 # mahjong.c:63:     while (x > M_PI)
	vcomisd	%xmm3, %xmm2	 # tmp477, x
	jbe	.L363	 #,
	.p2align 4
	.p2align 3
.L297:
 # mahjong.c:64:         x -= 2.0 * M_PI;
	vsubsd	%xmm0, %xmm2, %xmm2	 # tmp478, x, x
 # mahjong.c:63:     while (x > M_PI)
	vcomisd	%xmm3, %xmm2	 # tmp477, x
	ja	.L297	 #,
.L298:
 # mahjong.c:71:     if (x > M_PI / 2)
	vcomisd	%xmm20, %xmm2	 # tmp480, x
	jbe	.L364	 #,
	.p2align 4
	.p2align 3
.L379:
 # mahjong.c:73:         x = M_PI - x;
	vsubsd	%xmm2, %xmm3, %xmm2	 # x, tmp477, x
.L303:
 # mahjong.c:83:         1.0 - (x*x/2.0) *
	vmulsd	%xmm2, %xmm2, %xmm2	 # x, x, _340
 # mahjong.c:85:         (1.0 - (x*x/30.0)));
	vmovsd	.LC7(%rip), %xmm21	 #, tmp482
 # mahjong.c:85:         (1.0 - (x*x/30.0)));
	vmovsd	.LC6(%rip), %xmm5	 #, tmp481
 # mahjong.c:84:         (1.0 - (x*x/12.0) *
	vmovsd	.LC8(%rip), %xmm22	 #, tmp483
 # mahjong.c:85:         (1.0 - (x*x/30.0)));
	vdivsd	%xmm5, %xmm2, %xmm0	 # tmp481, _340, tmp448
 # mahjong.c:84:         (1.0 - (x*x/12.0) *
	vdivsd	%xmm22, %xmm2, %xmm4	 # tmp483, _340, tmp452
 # mahjong.c:85:         (1.0 - (x*x/30.0)));
	vsubsd	%xmm0, %xmm21, %xmm0	 # tmp448, tmp482, tmp450
 # mahjong.c:83:         1.0 - (x*x/2.0) *
	vmovsd	.LC9(%rip), %xmm23	 #, tmp484
 # mahjong.c:84:         (1.0 - (x*x/12.0) *
	vmulsd	%xmm4, %xmm0, %xmm0	 # tmp452, tmp450, tmp454
 # mahjong.c:83:         1.0 - (x*x/2.0) *
	vmulsd	%xmm23, %xmm2, %xmm2	 # tmp484, _340, tmp457
 # mahjong.c:84:         (1.0 - (x*x/12.0) *
	vsubsd	%xmm0, %xmm21, %xmm0	 # tmp454, tmp482, tmp455
 # mahjong.c:83:         1.0 - (x*x/2.0) *
	vmulsd	%xmm2, %xmm0, %xmm2	 # tmp457, tmp455, tmp459
 # mahjong.c:82:     double result =
	vsubsd	%xmm2, %xmm21, %xmm2	 # tmp459, tmp482, result
 # mahjong.c:87:     return negate ? -result : result;
	vxorpd	.LC10(%rip), %xmm2, %xmm2	 #, result, iftmp.0_127
.L342:
 # mahjong.c:100:     return (f32)sin((double)x);
	vcvtsd2ss	%xmm2, %xmm2, %xmm2	 # iftmp.0_127, _85
	vmovsd	.LC2(%rip), %xmm0	 #, tmp478
 # mahjong.c:63:     while (x > M_PI)
	vcomisd	%xmm3, %xmm1	 # tmp477, x
	jbe	.L366	 #,
	.p2align 4
	.p2align 3
.L308:
 # mahjong.c:64:         x -= 2.0 * M_PI;
	vsubsd	%xmm0, %xmm1, %xmm1	 # tmp478, x, x
 # mahjong.c:63:     while (x > M_PI)
	vcomisd	%xmm3, %xmm1	 # tmp477, x
	ja	.L308	 #,
.L309:
 # mahjong.c:71:     if (x > M_PI / 2)
	vcomisd	%xmm20, %xmm1	 # tmp480, x
	jbe	.L367	 #,
	.p2align 4
	.p2align 3
.L378:
 # mahjong.c:73:         x = M_PI - x;
	vsubsd	%xmm1, %xmm3, %xmm1	 # x, tmp477, x
.L314:
 # mahjong.c:83:         1.0 - (x*x/2.0) *
	vmulsd	%xmm1, %xmm1, %xmm1	 # x, x, _263
 # mahjong.c:85:         (1.0 - (x*x/30.0)));
	vdivsd	%xmm5, %xmm1, %xmm0	 # tmp481, _263, tmp420
 # mahjong.c:84:         (1.0 - (x*x/12.0) *
	vdivsd	%xmm22, %xmm1, %xmm4	 # tmp483, _263, tmp424
 # mahjong.c:85:         (1.0 - (x*x/30.0)));
	vsubsd	%xmm0, %xmm21, %xmm0	 # tmp420, tmp482, tmp422
 # mahjong.c:83:         1.0 - (x*x/2.0) *
	vmulsd	%xmm23, %xmm1, %xmm1	 # tmp484, _263, tmp429
 # mahjong.c:84:         (1.0 - (x*x/12.0) *
	vmulsd	%xmm4, %xmm0, %xmm0	 # tmp424, tmp422, tmp426
 # mahjong.c:84:         (1.0 - (x*x/12.0) *
	vsubsd	%xmm0, %xmm21, %xmm0	 # tmp426, tmp482, tmp427
 # mahjong.c:83:         1.0 - (x*x/2.0) *
	vmulsd	%xmm1, %xmm0, %xmm0	 # tmp429, tmp427, tmp431
 # mahjong.c:82:     double result =
	vsubsd	%xmm0, %xmm21, %xmm0	 # tmp431, tmp482, result
 # mahjong.c:87:     return negate ? -result : result;
	vxorpd	.LC10(%rip), %xmm0, %xmm0	 #, result, iftmp.0_107
.L341:
 # mahjong.c:273:     r.m[1][2] = -s; 
	vxorps	%xmm19, %xmm2, %xmm1	 # tmp476, _85, tmp290
 # mahjong.c:96:     return (f32)cos((double)x);
	vcvtsd2ss	%xmm0, %xmm0, %xmm0	 # iftmp.0_107, _87
 # mahjong.c:277:     return r; 
	vmovss	%xmm2, 36(%rsp)	 # _85, rx.m[2][1]
	movl	$0x00000000, 16(%rsp)	 #, rx.m[1][0]
	vmovss	%xmm1, 24(%rsp)	 # tmp290, rx.m[1][2]
 # mahjong.c:301:     matrix ry = rotation_y_matrix(-cam->rotation.y);
	vmovss	16(%rdx), %xmm1	 # cam_12(D)->rotation.y, cam_12(D)->rotation.y
 # mahjong.c:277:     return r; 
	movq	$0, 28(%rsp)	 #, MEM <unsigned long long> [(float *)&rx + 28B]
	movl	$0x00000000, 44(%rsp)	 #, rx.m[2][3]
	vmovss	%xmm0, 20(%rsp)	 # _87, rx.m[1][1]
	vmovss	%xmm0, 40(%rsp)	 # _87, rx.m[2][2]
	vmovsd	.LC2(%rip), %xmm0	 #, tmp478
 # mahjong.c:301:     matrix ry = rotation_y_matrix(-cam->rotation.y);
	vxorps	%xmm19, %xmm1, %xmm1	 # tmp476, cam_12(D)->rotation.y, tmp293
 # mahjong.c:100:     return (f32)sin((double)x);
	vcvtss2sd	%xmm1, %xmm1, %xmm1	 # tmp293, x
 # mahjong.c:92:     return cos(x-M_PI_2);
	vsubsd	%xmm20, %xmm1, %xmm2	 # tmp480, x, x
 # mahjong.c:63:     while (x > M_PI)
	vcomisd	%xmm3, %xmm2	 # tmp477, x
	jbe	.L369	 #,
	.p2align 4
	.p2align 3
.L319:
 # mahjong.c:64:         x -= 2.0 * M_PI;
	vsubsd	%xmm0, %xmm2, %xmm2	 # tmp478, x, x
 # mahjong.c:63:     while (x > M_PI)
	vcomisd	%xmm3, %xmm2	 # tmp477, x
	ja	.L319	 #,
.L320:
 # mahjong.c:71:     if (x > M_PI / 2)
	vcomisd	%xmm20, %xmm2	 # tmp480, x
	jbe	.L370	 #,
	.p2align 4
	.p2align 3
.L377:
 # mahjong.c:73:         x = M_PI - x;
	vsubsd	%xmm2, %xmm3, %xmm2	 # x, tmp477, x
.L325:
 # mahjong.c:83:         1.0 - (x*x/2.0) *
	vmulsd	%xmm2, %xmm2, %xmm2	 # x, x, _201
 # mahjong.c:85:         (1.0 - (x*x/30.0)));
	vdivsd	%xmm5, %xmm2, %xmm0	 # tmp481, _201, tmp392
 # mahjong.c:84:         (1.0 - (x*x/12.0) *
	vdivsd	%xmm22, %xmm2, %xmm4	 # tmp483, _201, tmp396
 # mahjong.c:85:         (1.0 - (x*x/30.0)));
	vsubsd	%xmm0, %xmm21, %xmm0	 # tmp392, tmp482, tmp394
 # mahjong.c:83:         1.0 - (x*x/2.0) *
	vmulsd	%xmm23, %xmm2, %xmm2	 # tmp484, _201, tmp401
 # mahjong.c:84:         (1.0 - (x*x/12.0) *
	vmulsd	%xmm4, %xmm0, %xmm0	 # tmp396, tmp394, tmp398
 # mahjong.c:84:         (1.0 - (x*x/12.0) *
	vsubsd	%xmm0, %xmm21, %xmm0	 # tmp398, tmp482, tmp399
 # mahjong.c:83:         1.0 - (x*x/2.0) *
	vmulsd	%xmm2, %xmm0, %xmm2	 # tmp401, tmp399, tmp403
 # mahjong.c:82:     double result =
	vsubsd	%xmm2, %xmm21, %xmm2	 # tmp403, tmp482, result
 # mahjong.c:87:     return negate ? -result : result;
	vxorpd	.LC10(%rip), %xmm2, %xmm2	 #, result, iftmp.0_167
.L340:
 # mahjong.c:100:     return (f32)sin((double)x);
	vcvtsd2ss	%xmm2, %xmm2, %xmm2	 # iftmp.0_167, _78
	vmovsd	.LC2(%rip), %xmm0	 #, tmp478
 # mahjong.c:63:     while (x > M_PI)
	vcomisd	%xmm3, %xmm1	 # tmp477, x
	jbe	.L372	 #,
	.p2align 4
	.p2align 3
.L330:
 # mahjong.c:64:         x -= 2.0 * M_PI;
	vsubsd	%xmm0, %xmm1, %xmm1	 # tmp478, x, x
 # mahjong.c:63:     while (x > M_PI)
	vcomisd	%xmm3, %xmm1	 # tmp477, x
	ja	.L330	 #,
.L331:
 # mahjong.c:71:     if (x > M_PI / 2)
	vcomisd	%xmm20, %xmm1	 # tmp480, x
	ja	.L376	 #,
 # mahjong.c:76:     else if (x < -M_PI / 2)
	vmovsd	.LC5(%rip), %xmm0	 #, tmp315
	vcomisd	%xmm1, %xmm0	 # x, tmp315
	jbe	.L374	 #,
 # mahjong.c:78:         x = -M_PI - x;
	vmovsd	.LC3(%rip), %xmm3	 #, tmp316
.L376:
	vsubsd	%xmm1, %xmm3, %xmm3	 # x, tmp316, x
 # mahjong.c:83:         1.0 - (x*x/2.0) *
	vmulsd	%xmm3, %xmm3, %xmm3	 # x, x, _151
 # mahjong.c:85:         (1.0 - (x*x/30.0)));
	vdivsd	%xmm5, %xmm3, %xmm1	 # tmp481, _151, tmp377
 # mahjong.c:84:         (1.0 - (x*x/12.0) *
	vdivsd	%xmm22, %xmm3, %xmm22	 # tmp483, _151, tmp381
 # mahjong.c:85:         (1.0 - (x*x/30.0)));
	vsubsd	%xmm1, %xmm21, %xmm1	 # tmp377, tmp482, tmp379
 # mahjong.c:83:         1.0 - (x*x/2.0) *
	vmulsd	%xmm23, %xmm3, %xmm3	 # tmp484, _151, tmp386
 # mahjong.c:84:         (1.0 - (x*x/12.0) *
	vmulsd	%xmm22, %xmm1, %xmm1	 # tmp381, tmp379, tmp383
 # mahjong.c:84:         (1.0 - (x*x/12.0) *
	vsubsd	%xmm1, %xmm21, %xmm1	 # tmp383, tmp482, tmp384
 # mahjong.c:83:         1.0 - (x*x/2.0) *
	vmulsd	%xmm3, %xmm1, %xmm1	 # tmp386, tmp384, tmp388
 # mahjong.c:82:     double result =
	vsubsd	%xmm1, %xmm21, %xmm1	 # tmp388, tmp482, result
 # mahjong.c:87:     return negate ? -result : result;
	vxorpd	.LC10(%rip), %xmm1, %xmm1	 #, result, iftmp.0_147
.L339:
 # mahjong.c:186:          r.m[i][j] = (a->m[i][0] * b->m[0][j] + 
	vmovups	16(%rsp), %xmm3	 # MEM <const vector(4) float> [(float *)&rx + 16B], vect__281.740
	vmovups	32(%rsp), %xmm0	 # MEM <const vector(4) float> [(float *)&rx + 32B], vect__281.741
	vmovups	.LC18(%rip), %xmm4	 #, tmp321
 # mahjong.c:96:     return (f32)cos((double)x);
	vcvtsd2ss	%xmm1, %xmm1, %xmm1	 # iftmp.0_147, _80
 # mahjong.c:186:          r.m[i][j] = (a->m[i][0] * b->m[0][j] + 
	vmovss	.LC20(%rip), %xmm20	 #, tmp319
 # mahjong.c:287:     r.m[2][0] = -s; 
	vxorps	%xmm19, %xmm2, %xmm5	 # tmp476, _78, _81
 # mahjong.c:186:          r.m[i][j] = (a->m[i][0] * b->m[0][j] + 
	vbroadcastss	%xmm2, %xmm2	 # _78, tmp334
	vbroadcastss	%xmm18, %xmm18	 # _6, tmp353
 # mahjong.c:188:                       a->m[i][2] * b->m[2][j] + 
	vbroadcastss	%xmm17, %xmm17	 # _2, tmp356
	vbroadcastss	%xmm1, %xmm1	 # _80, tmp318
	vbroadcastss	%xmm5, %xmm5	 # _81, tmp327
 # mahjong.c:186:          r.m[i][j] = (a->m[i][0] * b->m[0][j] + 
	vshufps	$136, %xmm3, %xmm20, %xmm21	 #, vect__281.740, tmp319, vect_perm_even_513
	vshufps	$221, %xmm3, %xmm20, %xmm20	 #, vect__281.740, tmp319, vect_perm_odd_512
	vshufps	$136, %xmm4, %xmm0, %xmm3	 #, tmp321, vect__281.741, vect_perm_even_511
	vshufps	$221, %xmm4, %xmm0, %xmm0	 #, tmp321, vect__281.741, vect_perm_odd_510
	vshufps	$136, %xmm3, %xmm21, %xmm23	 #, vect_perm_even_511, vect_perm_even_513, vect_perm_even_509
	vshufps	$136, %xmm0, %xmm20, %xmm4	 #, vect_perm_odd_510, vect_perm_odd_512, vect_perm_even_507
	vshufps	$221, %xmm3, %xmm21, %xmm21	 #, vect_perm_even_511, vect_perm_even_513, vect_perm_odd_508
	vshufps	$221, %xmm0, %xmm20, %xmm20	 #, vect_perm_odd_510, vect_perm_odd_512, vect_perm_odd_506
 # mahjong.c:186:          r.m[i][j] = (a->m[i][0] * b->m[0][j] + 
	vmulps	%xmm23, %xmm1, %xmm3	 # vect_perm_even_509, tmp318, vect__283.743
 # mahjong.c:187:                       a->m[i][1] * b->m[1][j] + 
	vxorps	%xmm0, %xmm0, %xmm0	 # tmp323
	vmulps	%xmm0, %xmm4, %xmm19	 # tmp323, vect_perm_even_507, vect__286.744
 # mahjong.c:188:                       a->m[i][2] * b->m[2][j] + 
	vmulps	%xmm21, %xmm5, %xmm5	 # vect_perm_odd_508, tmp327, vect__290.746
 # mahjong.c:186:          r.m[i][j] = (a->m[i][0] * b->m[0][j] + 
	vmulps	%xmm23, %xmm2, %xmm2	 # vect_perm_even_509, tmp334, vect__321.755
 # mahjong.c:188:                       a->m[i][2] * b->m[2][j] + 
	vmulps	%xmm21, %xmm1, %xmm1	 # vect_perm_odd_508, tmp318, vect__328.757
	vmulps	%xmm0, %xmm21, %xmm24	 # tmp323, vect_perm_odd_508, vect__309.752
 # mahjong.c:189:                       a->m[i][3] * b->m[3][j]);
	vmulps	%xmm0, %xmm20, %xmm22	 # tmp323, vect_perm_odd_506, vect__294.748
 # mahjong.c:186:          r.m[i][j] = (a->m[i][0] * b->m[0][j] + 
	vaddps	%xmm19, %xmm3, %xmm3	 # vect__286.744, vect__283.743, vect__287.745
	vaddps	%xmm19, %xmm2, %xmm2	 # vect__286.744, vect__321.755, vect__325.756
 # mahjong.c:187:                       a->m[i][1] * b->m[1][j] + 
	vaddps	%xmm5, %xmm3, %xmm3	 # vect__290.746, vect__287.745, vect__291.747
 # mahjong.c:186:          r.m[i][j] = (a->m[i][0] * b->m[0][j] + 
	vmulps	%xmm0, %xmm23, %xmm5	 # tmp323, vect_perm_even_509, vect__302.750
 # mahjong.c:187:                       a->m[i][1] * b->m[1][j] + 
	vaddps	%xmm1, %xmm2, %xmm1	 # vect__328.757, vect__325.756, vect__329.758
 # mahjong.c:186:          r.m[i][j] = (a->m[i][0] * b->m[0][j] + 
	vaddps	%xmm4, %xmm5, %xmm4	 # vect_perm_even_507, vect__302.750, vect__306.751
	vaddps	%xmm19, %xmm5, %xmm2	 # vect__286.744, vect__302.750, vect__344.760
 # mahjong.c:188:                       a->m[i][2] * b->m[2][j] + 
	vaddps	%xmm22, %xmm3, %xmm3	 # vect__294.748, vect__291.747, vect__295.749
	vaddps	%xmm22, %xmm1, %xmm1	 # vect__294.748, vect__329.758, vect__333.759
 # mahjong.c:187:                       a->m[i][1] * b->m[1][j] + 
	vaddps	%xmm24, %xmm4, %xmm4	 # vect__309.752, vect__306.751, vect__310.753
	vaddps	%xmm24, %xmm2, %xmm2	 # vect__309.752, vect__344.760, vect__348.761
 # mahjong.c:186:          r.m[i][j] = (a->m[i][0] * b->m[0][j] + 
	vunpcklps	%xmm1, %xmm3, %xmm19	 # vect__333.759, vect__295.749, vect_inter_high_475
	vunpckhps	%xmm1, %xmm3, %xmm1	 # vect__333.759, vect__295.749, vect_inter_low_474
 # mahjong.c:188:                       a->m[i][2] * b->m[2][j] + 
	vaddps	%xmm22, %xmm4, %xmm4	 # vect__294.748, vect__310.753, vect__314.754
	vaddps	%xmm20, %xmm2, %xmm2	 # vect_perm_odd_506, vect__348.761, vect__352.762
 # mahjong.c:186:          r.m[i][j] = (a->m[i][0] * b->m[0][j] + 
	vunpcklps	%xmm2, %xmm4, %xmm3	 # vect__352.762, vect__314.754, vect_inter_high_473
	vunpckhps	%xmm2, %xmm4, %xmm2	 # vect__352.762, vect__314.754, vect_inter_low_472
	vunpcklps	%xmm3, %xmm19, %xmm4	 # vect_inter_high_473, vect_inter_high_475, vect_inter_high_471
	vunpckhps	%xmm3, %xmm19, %xmm19	 # vect_inter_high_473, vect_inter_high_475, vect_inter_low_470
	vunpcklps	%xmm2, %xmm1, %xmm3	 # vect_inter_low_472, vect_inter_low_474, vect_inter_high_469
	vunpckhps	%xmm2, %xmm1, %xmm1	 # vect_inter_low_472, vect_inter_low_474, vect_inter_low_468
 # mahjong.c:186:          r.m[i][j] = (a->m[i][0] * b->m[0][j] + 
	vshufps	$136, %xmm1, %xmm3, %xmm2	 #, vect_inter_low_468, vect_inter_high_469, vect_perm_even_581
	vshufps	$136, %xmm19, %xmm4, %xmm5	 #, vect_inter_low_470, vect_inter_high_471, vect_perm_even_583
	vshufps	$221, %xmm1, %xmm3, %xmm1	 #, vect_inter_low_468, vect_inter_high_469, vect_perm_odd_580
	vshufps	$221, %xmm19, %xmm4, %xmm4	 #, vect_inter_low_470, vect_inter_high_471, vect_perm_odd_582
	vshufps	$136, %xmm1, %xmm4, %xmm20	 #, vect_perm_odd_580, vect_perm_odd_582, vect_perm_even_577
	vshufps	$136, %xmm2, %xmm5, %xmm19	 #, vect_perm_even_581, vect_perm_even_583, vect_perm_even_579
	vshufps	$221, %xmm1, %xmm4, %xmm4	 #, vect_perm_odd_580, vect_perm_odd_582, vect_perm_odd_576
	vshufps	$221, %xmm2, %xmm5, %xmm5	 #, vect_perm_even_581, vect_perm_even_583, vect_perm_odd_578
 # mahjong.c:187:                       a->m[i][1] * b->m[1][j] + 
	vmulps	%xmm0, %xmm20, %xmm21	 # tmp323, vect_perm_even_577, vect__79.716
 # mahjong.c:189:                       a->m[i][3] * b->m[3][j]);
	vmulps	%xmm0, %xmm4, %xmm2	 # tmp323, vect_perm_odd_576, vect__218.720
 # mahjong.c:188:                       a->m[i][2] * b->m[2][j] + 
	vmulps	%xmm0, %xmm5, %xmm22	 # tmp323, vect_perm_odd_578, vect__16.718
 # mahjong.c:186:          r.m[i][j] = (a->m[i][0] * b->m[0][j] + 
	vmulps	%xmm0, %xmm19, %xmm0	 # tmp323, vect_perm_even_579, vect__226.722
	vmulps	%xmm19, %xmm18, %xmm18	 # vect_perm_even_579, tmp353, vect__264.729
 # mahjong.c:186:          r.m[i][j] = (a->m[i][0] * b->m[0][j] + 
	vaddps	%xmm19, %xmm21, %xmm1	 # vect_perm_even_579, vect__79.716, vect__13.717
 # mahjong.c:188:                       a->m[i][2] * b->m[2][j] + 
	vmulps	%xmm5, %xmm17, %xmm17	 # vect_perm_odd_578, tmp356, vect__271.732
 # mahjong.c:186:          r.m[i][j] = (a->m[i][0] * b->m[0][j] + 
	vaddps	%xmm20, %xmm0, %xmm3	 # vect_perm_even_577, vect__226.722, vect__230.723
	vaddps	%xmm21, %xmm0, %xmm0	 # vect__79.716, vect__226.722, vect__249.726
 # mahjong.c:187:                       a->m[i][1] * b->m[1][j] + 
	vaddps	%xmm22, %xmm1, %xmm1	 # vect__16.718, vect__13.717, vect__215.719
	vaddps	%xmm22, %xmm3, %xmm3	 # vect__16.718, vect__230.723, vect__234.724
	vaddps	%xmm5, %xmm0, %xmm0	 # vect_perm_odd_578, vect__249.726, vect__253.727
 # mahjong.c:188:                       a->m[i][2] * b->m[2][j] + 
	vaddps	%xmm2, %xmm1, %xmm1	 # vect__218.720, vect__215.719, vect__219.721
	vaddps	%xmm2, %xmm3, %xmm3	 # vect__218.720, vect__234.724, vect__238.725
	vaddps	%xmm2, %xmm0, %xmm0	 # vect__218.720, vect__253.727, vect__257.728
 # mahjong.c:187:                       a->m[i][1] * b->m[1][j] + 
	vbroadcastss	%xmm16, %xmm2	 # _4, tmp351
	vmulps	%xmm20, %xmm2, %xmm2	 # vect_perm_even_577, tmp351, vect__267.730
 # mahjong.c:186:          r.m[i][j] = (a->m[i][0] * b->m[0][j] + 
	vaddps	%xmm18, %xmm2, %xmm2	 # vect__264.729, vect__267.730, vect__268.731
 # mahjong.c:187:                       a->m[i][1] * b->m[1][j] + 
	vaddps	%xmm17, %xmm2, %xmm2	 # vect__271.732, vect__268.731, vect__272.733
 # mahjong.c:188:                       a->m[i][2] * b->m[2][j] + 
	vaddps	%xmm4, %xmm2, %xmm2	 # vect_perm_odd_576, vect__272.733, vect__276.734
 # mahjong.c:186:          r.m[i][j] = (a->m[i][0] * b->m[0][j] + 
	vunpcklps	%xmm0, %xmm1, %xmm4	 # vect__257.728, vect__219.721, vect_inter_high_539
	vunpckhps	%xmm0, %xmm1, %xmm0	 # vect__257.728, vect__219.721, vect_inter_low_538
	vunpcklps	%xmm2, %xmm3, %xmm5	 # vect__276.734, vect__238.725, vect_inter_high_537
	vunpckhps	%xmm2, %xmm3, %xmm1	 # vect__276.734, vect__238.725, vect_inter_low_536
	vunpcklps	%xmm5, %xmm4, %xmm2	 # vect_inter_high_537, vect_inter_high_539, tmp359
	vunpckhps	%xmm5, %xmm4, %xmm4	 # vect_inter_high_537, vect_inter_high_539, tmp360
	vmovups	%xmm2, 64(%rsp)	 # tmp359, MEM <vector(4) float> [(float *)&r]
	vunpcklps	%xmm1, %xmm0, %xmm2	 # vect_inter_low_536, vect_inter_low_538, tmp361
	vunpckhps	%xmm1, %xmm0, %xmm0	 # vect_inter_low_536, vect_inter_low_538, tmp362
	vmovups	%xmm4, 80(%rsp)	 # tmp360, MEM <vector(4) float> [(float *)&r + 16B]
	vmovups	%xmm2, 96(%rsp)	 # tmp361, MEM <vector(4) float> [(float *)&r + 32B]
	vmovups	%xmm0, 112(%rsp)	 # tmp362, MEM <vector(4) float> [(float *)&r + 48B]
 # mahjong.c:192:     return r; 
	vmovdqu64	64(%rsp), %zmm5	 # r, tmp488
	vmovdqu64	%zmm5, (%rax)	 # tmp488, <retval>
	vzeroupper
 # mahjong.c:306: }
	addq	$136, %rsp	 #,
	ret	
.L372:
 # mahjong.c:66:     while (x < -M_PI)
	vmovsd	.LC3(%rip), %xmm4	 #, tmp479
	vcomisd	%xmm1, %xmm4	 # x, tmp479
	jbe	.L331	 #,
	.p2align 4
	.p2align 3
.L333:
 # mahjong.c:67:         x += 2.0 * M_PI;
	vaddsd	%xmm0, %xmm1, %xmm1	 # tmp478, x, x
 # mahjong.c:66:     while (x < -M_PI)
	vcomisd	%xmm1, %xmm4	 # x, tmp479
	ja	.L333	 #,
	jmp	.L331	 #
.L369:
	vmovsd	.LC3(%rip), %xmm4	 #, tmp479
	vcomisd	%xmm2, %xmm4	 # x, tmp479
	jbe	.L320	 #,
	.p2align 4
	.p2align 3
.L322:
 # mahjong.c:67:         x += 2.0 * M_PI;
	vaddsd	%xmm0, %xmm2, %xmm2	 # tmp478, x, x
 # mahjong.c:66:     while (x < -M_PI)
	vcomisd	%xmm2, %xmm4	 # x, tmp479
	ja	.L322	 #,
 # mahjong.c:71:     if (x > M_PI / 2)
	vcomisd	%xmm20, %xmm2	 # tmp480, x
	ja	.L377	 #,
.L370:
 # mahjong.c:76:     else if (x < -M_PI / 2)
	vmovsd	.LC5(%rip), %xmm0	 #, tmp305
	vcomisd	%xmm2, %xmm0	 # x, tmp305
	jbe	.L371	 #,
 # mahjong.c:78:         x = -M_PI - x;
	vmovsd	.LC3(%rip), %xmm0	 #, tmp306
	vsubsd	%xmm2, %xmm0, %xmm2	 # x, tmp306, x
	jmp	.L325	 #
.L366:
 # mahjong.c:66:     while (x < -M_PI)
	vmovsd	.LC3(%rip), %xmm4	 #, tmp479
	vcomisd	%xmm1, %xmm4	 # x, tmp479
	jbe	.L309	 #,
	.p2align 4
	.p2align 3
.L311:
 # mahjong.c:67:         x += 2.0 * M_PI;
	vaddsd	%xmm0, %xmm1, %xmm1	 # tmp478, x, x
 # mahjong.c:66:     while (x < -M_PI)
	vcomisd	%xmm1, %xmm4	 # x, tmp479
	ja	.L311	 #,
 # mahjong.c:71:     if (x > M_PI / 2)
	vcomisd	%xmm20, %xmm1	 # tmp480, x
	ja	.L378	 #,
.L367:
 # mahjong.c:76:     else if (x < -M_PI / 2)
	vmovsd	.LC5(%rip), %xmm0	 #, tmp287
	vcomisd	%xmm1, %xmm0	 # x, tmp287
	jbe	.L368	 #,
 # mahjong.c:78:         x = -M_PI - x;
	vmovsd	.LC3(%rip), %xmm0	 #, tmp288
	vsubsd	%xmm1, %xmm0, %xmm1	 # x, tmp288, x
	jmp	.L314	 #
.L363:
 # mahjong.c:66:     while (x < -M_PI)
	vmovsd	.LC3(%rip), %xmm4	 #, tmp479
	vcomisd	%xmm2, %xmm4	 # x, tmp479
	jbe	.L298	 #,
	.p2align 4
	.p2align 3
.L300:
 # mahjong.c:67:         x += 2.0 * M_PI;
	vaddsd	%xmm0, %xmm2, %xmm2	 # tmp478, x, x
 # mahjong.c:66:     while (x < -M_PI)
	vcomisd	%xmm2, %xmm4	 # x, tmp479
	ja	.L300	 #,
 # mahjong.c:71:     if (x > M_PI / 2)
	vcomisd	%xmm20, %xmm2	 # tmp480, x
	ja	.L379	 #,
.L364:
 # mahjong.c:76:     else if (x < -M_PI / 2)
	vmovsd	.LC5(%rip), %xmm0	 #, tmp277
	vcomisd	%xmm2, %xmm0	 # x, tmp277
	jbe	.L365	 #,
 # mahjong.c:78:         x = -M_PI - x;
	vmovsd	.LC3(%rip), %xmm0	 #, tmp278
	vsubsd	%xmm2, %xmm0, %xmm2	 # x, tmp278, x
	jmp	.L303	 #
	.p2align 4
	.p2align 3
.L374:
 # mahjong.c:83:         1.0 - (x*x/2.0) *
	vmulsd	%xmm1, %xmm1, %xmm1	 # x, x, _229
 # mahjong.c:85:         (1.0 - (x*x/30.0)));
	vdivsd	%xmm5, %xmm1, %xmm0	 # tmp481, _229, tmp364
 # mahjong.c:84:         (1.0 - (x*x/12.0) *
	vdivsd	%xmm22, %xmm1, %xmm22	 # tmp483, _229, tmp368
 # mahjong.c:85:         (1.0 - (x*x/30.0)));
	vsubsd	%xmm0, %xmm21, %xmm0	 # tmp364, tmp482, tmp366
 # mahjong.c:83:         1.0 - (x*x/2.0) *
	vmulsd	%xmm23, %xmm1, %xmm1	 # tmp484, _229, tmp373
 # mahjong.c:84:         (1.0 - (x*x/12.0) *
	vmulsd	%xmm22, %xmm0, %xmm0	 # tmp368, tmp366, tmp370
 # mahjong.c:84:         (1.0 - (x*x/12.0) *
	vsubsd	%xmm0, %xmm21, %xmm0	 # tmp370, tmp482, tmp371
 # mahjong.c:83:         1.0 - (x*x/2.0) *
	vmulsd	%xmm1, %xmm0, %xmm1	 # tmp373, tmp371, tmp375
 # mahjong.c:82:     double result =
	vsubsd	%xmm1, %xmm21, %xmm1	 # tmp375, tmp482, iftmp.0_147
	jmp	.L339	 #
	.p2align 4
	.p2align 3
.L365:
 # mahjong.c:83:         1.0 - (x*x/2.0) *
	vmulsd	%xmm2, %xmm2, %xmm2	 # x, x, _39
 # mahjong.c:85:         (1.0 - (x*x/30.0)));
	vmovsd	.LC7(%rip), %xmm21	 #, tmp482
 # mahjong.c:85:         (1.0 - (x*x/30.0)));
	vmovsd	.LC6(%rip), %xmm5	 #, tmp481
 # mahjong.c:84:         (1.0 - (x*x/12.0) *
	vmovsd	.LC8(%rip), %xmm22	 #, tmp483
 # mahjong.c:85:         (1.0 - (x*x/30.0)));
	vdivsd	%xmm5, %xmm2, %xmm0	 # tmp481, _39, tmp463
 # mahjong.c:84:         (1.0 - (x*x/12.0) *
	vdivsd	%xmm22, %xmm2, %xmm4	 # tmp483, _39, tmp467
 # mahjong.c:85:         (1.0 - (x*x/30.0)));
	vsubsd	%xmm0, %xmm21, %xmm0	 # tmp463, tmp482, tmp465
 # mahjong.c:83:         1.0 - (x*x/2.0) *
	vmovsd	.LC9(%rip), %xmm23	 #, tmp484
 # mahjong.c:84:         (1.0 - (x*x/12.0) *
	vmulsd	%xmm4, %xmm0, %xmm0	 # tmp467, tmp465, tmp469
 # mahjong.c:83:         1.0 - (x*x/2.0) *
	vmulsd	%xmm23, %xmm2, %xmm2	 # tmp484, _39, tmp472
 # mahjong.c:84:         (1.0 - (x*x/12.0) *
	vsubsd	%xmm0, %xmm21, %xmm0	 # tmp469, tmp482, tmp470
 # mahjong.c:83:         1.0 - (x*x/2.0) *
	vmulsd	%xmm2, %xmm0, %xmm2	 # tmp472, tmp470, tmp474
 # mahjong.c:82:     double result =
	vsubsd	%xmm2, %xmm21, %xmm2	 # tmp474, tmp482, iftmp.0_127
	jmp	.L342	 #
	.p2align 4
	.p2align 3
.L368:
 # mahjong.c:83:         1.0 - (x*x/2.0) *
	vmulsd	%xmm1, %xmm1, %xmm1	 # x, x, _305
 # mahjong.c:85:         (1.0 - (x*x/30.0)));
	vdivsd	%xmm5, %xmm1, %xmm0	 # tmp481, _305, tmp435
 # mahjong.c:84:         (1.0 - (x*x/12.0) *
	vdivsd	%xmm22, %xmm1, %xmm4	 # tmp483, _305, tmp439
 # mahjong.c:85:         (1.0 - (x*x/30.0)));
	vsubsd	%xmm0, %xmm21, %xmm0	 # tmp435, tmp482, tmp437
 # mahjong.c:83:         1.0 - (x*x/2.0) *
	vmulsd	%xmm23, %xmm1, %xmm1	 # tmp484, _305, tmp444
 # mahjong.c:84:         (1.0 - (x*x/12.0) *
	vmulsd	%xmm4, %xmm0, %xmm0	 # tmp439, tmp437, tmp441
 # mahjong.c:84:         (1.0 - (x*x/12.0) *
	vsubsd	%xmm0, %xmm21, %xmm0	 # tmp441, tmp482, tmp442
 # mahjong.c:83:         1.0 - (x*x/2.0) *
	vmulsd	%xmm1, %xmm0, %xmm0	 # tmp444, tmp442, tmp446
 # mahjong.c:82:     double result =
	vsubsd	%xmm0, %xmm21, %xmm0	 # tmp446, tmp482, iftmp.0_107
	jmp	.L341	 #
	.p2align 4
	.p2align 3
.L371:
 # mahjong.c:83:         1.0 - (x*x/2.0) *
	vmulsd	%xmm2, %xmm2, %xmm2	 # x, x, _86
 # mahjong.c:85:         (1.0 - (x*x/30.0)));
	vdivsd	%xmm5, %xmm2, %xmm0	 # tmp481, _86, tmp407
 # mahjong.c:84:         (1.0 - (x*x/12.0) *
	vdivsd	%xmm22, %xmm2, %xmm4	 # tmp483, _86, tmp411
 # mahjong.c:85:         (1.0 - (x*x/30.0)));
	vsubsd	%xmm0, %xmm21, %xmm0	 # tmp407, tmp482, tmp409
 # mahjong.c:83:         1.0 - (x*x/2.0) *
	vmulsd	%xmm23, %xmm2, %xmm2	 # tmp484, _86, tmp416
 # mahjong.c:84:         (1.0 - (x*x/12.0) *
	vmulsd	%xmm4, %xmm0, %xmm0	 # tmp411, tmp409, tmp413
 # mahjong.c:84:         (1.0 - (x*x/12.0) *
	vsubsd	%xmm0, %xmm21, %xmm0	 # tmp413, tmp482, tmp414
 # mahjong.c:83:         1.0 - (x*x/2.0) *
	vmulsd	%xmm2, %xmm0, %xmm2	 # tmp416, tmp414, tmp418
 # mahjong.c:82:     double result =
	vsubsd	%xmm2, %xmm21, %xmm2	 # tmp418, tmp482, iftmp.0_167
	jmp	.L340	 #
	.seh_endproc
	.p2align 4
	.globl	mat_mul_vert3
	.def	mat_mul_vert3;	.scl	2;	.type	32;	.endef
	.seh_proc	mat_mul_vert3
mat_mul_vert3:
	subq	$40, %rsp	 #,
	.seh_stackalloc	40
	vmovups	%xmm6, (%rsp)	 #,
	.seh_savexmm	%xmm6, 0
	vmovups	%xmm7, 16(%rsp)	 #,
	.seh_savexmm	%xmm7, 16
	.seh_endprologue
 # mahjong.c:313:         m->m[0][0] * v->x +
	vmovq	(%r8), %xmm3	 # MEM <const vector(2) float> [(float *)v_36(D)], MEM <const vector(2) float> [(float *)v_36(D)]
 # mahjong.c:325:         m->m[2][0] * v->x +
	vmovss	32(%rdx), %xmm0	 # m_35(D)->m[2][0], tmp121
 # mahjong.c:315:         m->m[0][2] * v->z +
	vmovss	8(%r8), %xmm16	 # v_36(D)->z, _9
 # mahjong.c:309: vert3f mat_mul_vert3(const matrix *m, const vert3f *v) {
	movq	%rcx, %rax	 # tmp141, .result_ptr
 # mahjong.c:313:         m->m[0][0] * v->x +
	vmovq	16(%rdx), %xmm6	 # MEM <const vector(2) float> [(float *)m_35(D) + 16B], MEM <const vector(2) float> [(float *)m_35(D) + 16B]
	vmovq	(%rdx), %xmm2	 # MEM <const vector(2) float> [(float *)m_35(D)], MEM <const vector(2) float> [(float *)m_35(D)]
 # mahjong.c:315:         m->m[0][2] * v->z +
	vmovq	8(%rdx), %xmm4	 # MEM <const vector(2) float> [(float *)m_35(D) + 8B], MEM <const vector(2) float> [(float *)m_35(D) + 8B]
	vmovq	24(%rdx), %xmm5	 # MEM <const vector(2) float> [(float *)m_35(D) + 24B], MEM <const vector(2) float> [(float *)m_35(D) + 24B]
 # mahjong.c:326:         m->m[2][1] * v->y +
	vmovshdup	%xmm3, %xmm1	 # MEM <const vector(2) float> [(float *)v_36(D)], tmp123
	vmulss	36(%rdx), %xmm1, %xmm1	 # m_35(D)->m[2][1], tmp123, tmp124
 # mahjong.c:325:         m->m[2][0] * v->x +
	vmulss	%xmm3, %xmm0, %xmm0	 # MEM <const vector(2) float> [(float *)v_36(D)], tmp121, tmp121
 # mahjong.c:313:         m->m[0][0] * v->x +
	vmovsldup	%xmm3, %xmm7	 # MEM <const vector(2) float> [(float *)v_36(D)], vect__2.784
	vmovshdup	%xmm3, %xmm3	 # MEM <const vector(2) float> [(float *)v_36(D)], vect__2.799
 # mahjong.c:325:         m->m[2][0] * v->x +
	vaddss	%xmm1, %xmm0, %xmm0	 # tmp124, tmp122, tmp125
 # mahjong.c:327:         m->m[2][2] * v->z +
	vmulss	40(%rdx), %xmm16, %xmm1	 # m_35(D)->m[2][2], _9, tmp126
 # mahjong.c:326:         m->m[2][1] * v->y +
	vaddss	%xmm1, %xmm0, %xmm0	 # tmp126, tmp125, tmp127
 # mahjong.c:313:         m->m[0][0] * v->x +
	vunpcklps	%xmm6, %xmm2, %xmm1	 # MEM <const vector(2) float> [(float *)m_35(D) + 16B], MEM <const vector(2) float> [(float *)m_35(D)], vect__1.779
	vunpcklps	%xmm6, %xmm2, %xmm2	 # MEM <const vector(2) float> [(float *)m_35(D) + 16B], MEM <const vector(2) float> [(float *)m_35(D)], vect__1.794
 # mahjong.c:327:         m->m[2][2] * v->z +
	vaddss	44(%rdx), %xmm0, %xmm0	 # m_35(D)->m[2][3], tmp127, _33
 # mahjong.c:313:         m->m[0][0] * v->x +
	vshufps	$78, %xmm2, %xmm2, %xmm2	 #, vect__1.794, vect__1.794, vect__1.794
 # mahjong.c:313:         m->m[0][0] * v->x +
	vmulps	%xmm7, %xmm1, %xmm1	 # vect__2.784, vect__1.779, vect__3.785
 # mahjong.c:331: }
	vmovups	(%rsp), %xmm6	 #,
	vmovups	16(%rsp), %xmm7	 #,
 # mahjong.c:314:         m->m[0][1] * v->y +
	vmulps	%xmm3, %xmm2, %xmm2	 # vect__2.799, vect__1.794, vect__6.800
 # mahjong.c:313:         m->m[0][0] * v->x +
	vunpcklps	%xmm5, %xmm4, %xmm3	 # MEM <const vector(2) float> [(float *)m_35(D) + 24B], MEM <const vector(2) float> [(float *)m_35(D) + 8B], vect__1.810
	vunpcklps	%xmm5, %xmm4, %xmm4	 # MEM <const vector(2) float> [(float *)m_35(D) + 24B], MEM <const vector(2) float> [(float *)m_35(D) + 8B], vect__1.821
	vshufps	$78, %xmm4, %xmm4, %xmm4	 #, vect__1.821, vect__1.821, vect__1.821
 # mahjong.c:313:         m->m[0][0] * v->x +
	vaddps	%xmm2, %xmm1, %xmm1	 # vect__6.800, vect__3.785, vect__7.801
 # mahjong.c:315:         m->m[0][2] * v->z +
	vmovsldup	%xmm16, %xmm2	 # _9, tmp136
	vmulps	%xmm2, %xmm3, %xmm2	 # tmp136, vect__1.810, vect__10.811
 # mahjong.c:330:     return r;
	vmovss	%xmm0, 8(%rcx)	 # _33, <retval>.z
 # mahjong.c:314:         m->m[0][1] * v->y +
	vaddps	%xmm2, %xmm1, %xmm1	 # vect__10.811, vect__7.801, vect__11.812
 # mahjong.c:315:         m->m[0][2] * v->z +
	vaddps	%xmm4, %xmm1, %xmm1	 # vect__1.821, vect__11.812, vect__13.822
 # mahjong.c:330:     return r;
	vmovlps	%xmm1, (%rcx)	 # vect__13.822, MEM <vector(2) float> [(float *)&<retval>]
 # mahjong.c:331: }
	addq	$40, %rsp	 #,
	ret	
	.seh_endproc
	.p2align 4
	.globl	mat_mul_normal
	.def	mat_mul_normal;	.scl	2;	.type	32;	.endef
	.seh_proc	mat_mul_normal
mat_mul_normal:
	.seh_endprologue
 # mahjong.c:336:         m->m[0][0] * n->x +
	vmovq	16(%rdx), %xmm1	 # MEM <const vector(2) float> [(float *)m_29(D) + 16B], MEM <const vector(2) float> [(float *)m_29(D) + 16B]
	vmovq	(%rdx), %xmm0	 # MEM <const vector(2) float> [(float *)m_29(D)], MEM <const vector(2) float> [(float *)m_29(D)]
 # mahjong.c:338:         m->m[0][2] * n->z;
	vmovss	8(%r8), %xmm5	 # n_30(D)->z, _9
 # mahjong.c:151: 	y  = * ( f32 * ) &i;
	movl	$1597463007, %eax	 #, tmp160
 # mahjong.c:336:         m->m[0][0] * n->x +
	vmovq	(%r8), %xmm3	 # MEM <const vector(2) float> [(float *)n_30(D)], MEM <const vector(2) float> [(float *)n_30(D)]
 # mahjong.c:336:         m->m[0][0] * n->x +
	vunpcklps	%xmm1, %xmm0, %xmm2	 # MEM <const vector(2) float> [(float *)m_29(D) + 16B], MEM <const vector(2) float> [(float *)m_29(D)], vect__1.836
	vunpcklps	%xmm1, %xmm0, %xmm0	 # MEM <const vector(2) float> [(float *)m_29(D) + 16B], MEM <const vector(2) float> [(float *)m_29(D)], vect__1.851
	vshufps	$78, %xmm0, %xmm0, %xmm0	 #, vect__1.851, vect__1.851, vect__1.851
 # mahjong.c:336:         m->m[0][0] * n->x +
	vmovsldup	%xmm3, %xmm4	 # MEM <const vector(2) float> [(float *)n_30(D)], vect__2.841
	vmovshdup	%xmm3, %xmm1	 # MEM <const vector(2) float> [(float *)n_30(D)], vect__2.856
 # mahjong.c:336:         m->m[0][0] * n->x +
	vmulps	%xmm4, %xmm2, %xmm2	 # vect__2.841, vect__1.836, vect__3.842
 # mahjong.c:337:         m->m[0][1] * n->y +
	vmulps	%xmm1, %xmm0, %xmm0	 # vect__2.856, vect__1.851, vect__6.857
 # mahjong.c:338:         m->m[0][2] * n->z;
	vmovq	24(%rdx), %xmm1	 # MEM <const vector(2) float> [(float *)m_29(D) + 24B], vect__8.864
 # mahjong.c:336:         m->m[0][0] * n->x +
	vaddps	%xmm0, %xmm2, %xmm2	 # vect__6.857, vect__3.842, vect__7.858
 # mahjong.c:338:         m->m[0][2] * n->z;
	vmovq	8(%rdx), %xmm0	 # MEM <const vector(2) float> [(float *)m_29(D) + 8B], vect__8.862
 # mahjong.c:336:         m->m[0][0] * n->x +
	vunpcklps	%xmm1, %xmm0, %xmm0	 # vect__8.864, vect__8.862, vect__1.867
 # mahjong.c:338:         m->m[0][2] * n->z;
	vmovsldup	%xmm5, %xmm1	 # _9, tmp146
 # mahjong.c:348:         m->m[2][2] * n->z;
	vmulss	40(%rdx), %xmm5, %xmm5	 # m_29(D)->m[2][2], _9, tmp153
 # mahjong.c:338:         m->m[0][2] * n->z;
	vmulps	%xmm1, %xmm0, %xmm0	 # tmp146, vect__1.867, vect__10.868
 # mahjong.c:346:         m->m[2][0] * n->x +
	vmovss	32(%rdx), %xmm1	 # m_29(D)->m[2][0], tmp148
 # mahjong.c:337:         m->m[0][1] * n->y +
	vaddps	%xmm0, %xmm2, %xmm2	 # vect__10.868, vect__7.858, vect__11.869
 # mahjong.c:346:         m->m[2][0] * n->x +
	vmulss	%xmm3, %xmm1, %xmm1	 # MEM <const vector(2) float> [(float *)n_30(D)], tmp148, tmp148
 # mahjong.c:347:         m->m[2][1] * n->y +
	vmovshdup	%xmm3, %xmm3	 # MEM <const vector(2) float> [(float *)n_30(D)], tmp150
	vmulss	36(%rdx), %xmm3, %xmm3	 # m_29(D)->m[2][1], tmp150, tmp151
 # mahjong.c:164:     return a.x*b.x + a.y*b.y + a.z*b.z;
	vmulss	%xmm2, %xmm2, %xmm0	 # _120, _120, tmp154
	vmovshdup	%xmm2, %xmm4	 # vect__11.869, _121
 # mahjong.c:164:     return a.x*b.x + a.y*b.y + a.z*b.z;
	vmulss	%xmm4, %xmm4, %xmm4	 # _121, _121, tmp155
 # mahjong.c:164:     return a.x*b.x + a.y*b.y + a.z*b.z;
	vaddss	%xmm4, %xmm0, %xmm0	 # tmp155, tmp154, tmp156
 # mahjong.c:346:         m->m[2][0] * n->x +
	vaddss	%xmm3, %xmm1, %xmm1	 # tmp151, tmp149, tmp152
 # mahjong.c:347:         m->m[2][1] * n->y +
	vaddss	%xmm5, %xmm1, %xmm1	 # tmp153, tmp152, _27
 # mahjong.c:164:     return a.x*b.x + a.y*b.y + a.z*b.z;
	vmulss	%xmm1, %xmm1, %xmm3	 # _27, _27, tmp157
 # mahjong.c:164:     return a.x*b.x + a.y*b.y + a.z*b.z;
	vaddss	%xmm3, %xmm0, %xmm0	 # tmp157, tmp156, _43
 # mahjong.c:152: 	y  = y * ( threehalfs - ( x2 * y * y ) ); 
	vmovss	.LC23(%rip), %xmm3	 #, tmp166
 # mahjong.c:150: 	i  = 0x5f3759df - ( i >> 1 );
	vmovd	%xmm0, %edx	 # _43, tmp158
 # mahjong.c:147: 	x2 = number * 0.5F;
	vmulss	.LC22(%rip), %xmm0, %xmm0	 #, _43, x2
 # mahjong.c:150: 	i  = 0x5f3759df - ( i >> 1 );
	sarl	%edx	 # tmp158
 # mahjong.c:151: 	y  = * ( f32 * ) &i;
	subl	%edx, %eax	 # tmp158, tmp160
	vmovd	%eax, %xmm4	 # tmp160, _48
 # mahjong.c:351: }
	movq	%rcx, %rax	 # .result_ptr,
 # mahjong.c:152: 	y  = y * ( threehalfs - ( x2 * y * y ) ); 
	vmulss	%xmm4, %xmm0, %xmm0	 # _48, x2, tmp163
 # mahjong.c:152: 	y  = y * ( threehalfs - ( x2 * y * y ) ); 
	vmulss	%xmm4, %xmm0, %xmm0	 # _48, tmp163, tmp164
 # mahjong.c:152: 	y  = y * ( threehalfs - ( x2 * y * y ) ); 
	vsubss	%xmm0, %xmm3, %xmm0	 # tmp164, tmp166, tmp165
 # mahjong.c:158:     return 1.0f / fast_inv_sqrt(i);
	vmovss	.LC17(%rip), %xmm3	 #, tmp169
 # mahjong.c:152: 	y  = y * ( threehalfs - ( x2 * y * y ) ); 
	vmulss	%xmm4, %xmm0, %xmm0	 # _48, tmp165, tmp167
 # mahjong.c:158:     return 1.0f / fast_inv_sqrt(i);
	vdivss	%xmm0, %xmm3, %xmm0	 # tmp167, tmp169, tmp168
 # mahjong.c:170:     f32 recip_len = 1.0f / len;
	vdivss	%xmm0, %xmm3, %xmm0	 # tmp168, tmp169, recip_len
 # mahjong.c:175:         v.z * recip_len
	vmulss	%xmm0, %xmm1, %xmm1	 # recip_len, _27, tmp173
 # mahjong.c:173:         v.x * recip_len,
	vmovsldup	%xmm0, %xmm3	 # recip_len, tmp171
	vmulps	%xmm2, %xmm3, %xmm2	 # vect__11.869, tmp171, vect__55.870
 # mahjong.c:178:     return out;
	vmovss	%xmm1, 8(%rcx)	 # tmp173, <retval>.z
	vmovlps	%xmm2, (%rcx)	 # vect__55.870, MEM <vector(2) float> [(float *)&<retval>]
 # mahjong.c:351: }
	ret	
	.seh_endproc
	.p2align 4
	.globl	triangle_backfacing
	.def	triangle_backfacing;	.scl	2;	.type	32;	.endef
	.seh_proc	triangle_backfacing
triangle_backfacing:
	.seh_endprologue
 # mahjong.c:478:     const i32 X0 = (i32)(v0->x * 16.0f);
	vmovss	.LC24(%rip), %xmm0	 #, tmp114
	vmulss	(%rdx), %xmm0, %xmm1	 # v1_17(D)->x, tmp114, tmp112
 # mahjong.c:478:     const i32 X0 = (i32)(v0->x * 16.0f);
	vcvttss2sil	%xmm1, %r10d	 # tmp112, X0
 # mahjong.c:479:     const i32 Y0 = (i32)(v0->y * 16.0f);
	vmulss	4(%rdx), %xmm0, %xmm1	 # v1_17(D)->y, tmp114, tmp115
 # mahjong.c:487:     const i32 dx01 = X0 - X1;
	movl	%r10d, %edx	 # X0, dx01
 # mahjong.c:479:     const i32 Y0 = (i32)(v0->y * 16.0f);
	vcvttss2sil	%xmm1, %eax	 # tmp115, Y0
 # mahjong.c:480:     const i32 X1 = (i32)(v1->x * 16.0f);
	vmulss	(%rcx), %xmm0, %xmm1	 # v0_16(D)->x, tmp114, tmp119
 # mahjong.c:480:     const i32 X1 = (i32)(v1->x * 16.0f);
	vcvttss2sil	%xmm1, %r9d	 # tmp119, X1
 # mahjong.c:483:     const i32 Y2 = (i32)(v2->y * 16.0f);
	vmulss	4(%r8), %xmm0, %xmm1	 # v2_23(D)->y, tmp114, tmp124
 # mahjong.c:487:     const i32 dx01 = X0 - X1;
	subl	%r9d, %edx	 # X1, dx01
 # mahjong.c:483:     const i32 Y2 = (i32)(v2->y * 16.0f);
	vcvttss2sil	%xmm1, %r9d	 # tmp124, Y2
 # mahjong.c:481:     const i32 Y1 = (i32)(v1->y * 16.0f);
	vmulss	4(%rcx), %xmm0, %xmm1	 # v0_16(D)->y, tmp114, tmp130
 # mahjong.c:482:     const i32 X2 = (i32)(v2->x * 16.0f);
	vmulss	(%r8), %xmm0, %xmm0	 # v2_23(D)->x, tmp114, tmp135
 # mahjong.c:490:     const i32 dy20 = Y2 - Y0;
	subl	%eax, %r9d	 # Y0, dy20
 # mahjong.c:495:         (dx01 * dy20 -
	imull	%r9d, %edx	 # dy20, tmp129
 # mahjong.c:481:     const i32 Y1 = (i32)(v1->y * 16.0f);
	vcvttss2sil	%xmm1, %ecx	 # tmp130, Y1
 # mahjong.c:488:     const i32 dy01 = Y0 - Y1;
	subl	%ecx, %eax	 # Y1, dy01
 # mahjong.c:482:     const i32 X2 = (i32)(v2->x * 16.0f);
	vcvttss2sil	%xmm0, %ecx	 # tmp135, X2
 # mahjong.c:489:     const i32 dx20 = X2 - X0;
	subl	%r10d, %ecx	 # X0, dx20
 # mahjong.c:496:         dy01 * dx20);
	imull	%ecx, %eax	 # dx20, tmp140
 # mahjong.c:497:     return (area <= 0);
	cmpl	%eax, %edx	 # tmp140, tmp129
	setle	%al	 #, tmp141
	movzbl	%al, %eax	 # tmp141, tmp141
 # mahjong.c:498: }
	ret	
	.seh_endproc
	.p2align 4
	.globl	fast_log2
	.def	fast_log2;	.scl	2;	.type	32;	.endef
	.seh_proc	fast_log2
fast_log2:
	.seh_endprologue
 # mahjong.c:661: {
	vmovd	%xmm0, %eax	 # x, tmp89
 # mahjong.c:662:     return (int)((*(u32*)&x) >> 23) - 127;
	shrl	$23, %eax	 #, tmp88
 # mahjong.c:662:     return (int)((*(u32*)&x) >> 23) - 127;
	subl	$127, %eax	 #, tmp87
 # mahjong.c:663: }
	ret	
	.seh_endproc
	.p2align 4
	.globl	absf
	.def	absf;	.scl	2;	.type	32;	.endef
	.seh_proc	absf
absf:
	.seh_endprologue
	vxorps	%xmm1, %xmm1, %xmm1	 # tmp84
	vxorps	.LC12(%rip), %xmm0, %xmm3	 #, a, tmp90
	vmovaps	%xmm0, %xmm2	 # a, tmp91
	vcmpltss	%xmm1, %xmm0, %xmm0	 #, tmp84, a, tmp92
	vblendvps	%xmm0, %xmm3, %xmm2, %xmm0	 # tmp92, tmp90, tmp91, a
	ret	
	.seh_endproc
	.p2align 4
	.globl	parallel_pixel_shader
	.def	parallel_pixel_shader;	.scl	2;	.type	32;	.endef
	.seh_proc	parallel_pixel_shader
parallel_pixel_shader:
	.seh_endprologue
	vxorps	%xmm1, %xmm1, %xmm1	 # tmp224
 # mahjong.c:674: ) {
	vmovups	(%rdx), %xmm0	 # w0, w0
	vmovups	(%r8), %xmm5	 # w1, w1
	vmovups	(%r9), %xmm4	 # w2, w2
 # mahjong.c:676:     f32_vec u_over_z = (w0 * v0u_over_z + w1 * v1u_over_z + w2 * v2u_over_z) * recip_area;
	vbroadcastss	88(%rsp), %xmm17	 # recip_area, tmp164
 # mahjong.c:674: ) {
	vmovups	(%rcx), %xmm16	 # z, z
	movl	104(%rsp), %eax	 # tex_width, tex_width
	movl	112(%rsp), %edx	 # tex_height, tex_height
	movq	96(%rsp), %rcx	 # texels, texels
 # mahjong.c:677:     f32_vec v_over_z = (w0 * v0v_over_z + w1 * v1v_over_z + w2 * v2v_over_z) * recip_area;
	vmulps	64(%rsp){1to4}, %xmm5, %xmm3	 #, w1, tmp168
 # mahjong.c:677:     f32_vec v_over_z = (w0 * v0v_over_z + w1 * v1v_over_z + w2 * v2v_over_z) * recip_area;
	vmulps	48(%rsp){1to4}, %xmm0, %xmm2	 #, w0, tmp166
 # mahjong.c:676:     f32_vec u_over_z = (w0 * v0u_over_z + w1 * v1u_over_z + w2 * v2u_over_z) * recip_area;
	vmulps	56(%rsp){1to4}, %xmm5, %xmm5	 #, w1, tmp177
 # mahjong.c:676:     f32_vec u_over_z = (w0 * v0u_over_z + w1 * v1u_over_z + w2 * v2u_over_z) * recip_area;
	vmulps	40(%rsp){1to4}, %xmm0, %xmm0	 #, w0, tmp175
 # mahjong.c:677:     f32_vec v_over_z = (w0 * v0v_over_z + w1 * v1v_over_z + w2 * v2v_over_z) * recip_area;
	vaddps	%xmm3, %xmm2, %xmm2	 # tmp168, tmp166, tmp169
 # mahjong.c:677:     f32_vec v_over_z = (w0 * v0v_over_z + w1 * v1v_over_z + w2 * v2v_over_z) * recip_area;
	vmulps	80(%rsp){1to4}, %xmm4, %xmm3	 #, w2, tmp171
 # mahjong.c:676:     f32_vec u_over_z = (w0 * v0u_over_z + w1 * v1u_over_z + w2 * v2u_over_z) * recip_area;
	vmulps	72(%rsp){1to4}, %xmm4, %xmm4	 #, w2, tmp180
 # mahjong.c:676:     f32_vec u_over_z = (w0 * v0u_over_z + w1 * v1u_over_z + w2 * v2u_over_z) * recip_area;
	vaddps	%xmm5, %xmm0, %xmm0	 # tmp177, tmp175, tmp178
 # mahjong.c:677:     f32_vec v_over_z = (w0 * v0v_over_z + w1 * v1v_over_z + w2 * v2v_over_z) * recip_area;
	vaddps	%xmm3, %xmm2, %xmm2	 # tmp171, tmp169, tmp172
 # mahjong.c:696:     i32_vec int_u = f32_vec_floor(u * (f32)tex_width); // (i32)fast_floor(u * (f32)tex_width);// & 1023;
	vcvtsi2ssl	%eax, %xmm1, %xmm3	 # tex_width, tmp224, tmp225
 # mahjong.c:696:     i32_vec int_u = f32_vec_floor(u * (f32)tex_width); // (i32)fast_floor(u * (f32)tex_width);// & 1023;
	vbroadcastss	%xmm3, %xmm3	 # _63, tmp184
 # mahjong.c:697:     i32_vec int_v = f32_vec_floor(v * (f32)tex_height);// & 1023;
	vcvtsi2ssl	%edx, %xmm1, %xmm1	 # tex_height, tmp224, tmp226
 # mahjong.c:676:     f32_vec u_over_z = (w0 * v0u_over_z + w1 * v1u_over_z + w2 * v2u_over_z) * recip_area;
	vaddps	%xmm4, %xmm0, %xmm0	 # tmp180, tmp178, tmp181
 # mahjong.c:697:     i32_vec int_v = f32_vec_floor(v * (f32)tex_height);// & 1023;
	vbroadcastss	%xmm1, %xmm1	 # _67, tmp188
 # mahjong.c:699:     int_u &= (tex_width-1);
	decl	%eax	 # _69
 # mahjong.c:677:     f32_vec v_over_z = (w0 * v0v_over_z + w1 * v1v_over_z + w2 * v2v_over_z) * recip_area;
	vmulps	%xmm17, %xmm2, %xmm2	 # tmp164, tmp172, v_over_z
 # mahjong.c:676:     f32_vec u_over_z = (w0 * v0u_over_z + w1 * v1u_over_z + w2 * v2u_over_z) * recip_area;
	vmulps	%xmm17, %xmm0, %xmm0	 # tmp164, tmp181, u_over_z
 # mahjong.c:679:     f32_vec v = (v_over_z * z);
	vmulps	%xmm16, %xmm2, %xmm2	 # z, v_over_z, v
 # mahjong.c:678:     f32_vec u = (u_over_z * z);
	vmulps	%xmm16, %xmm0, %xmm0	 # z, u_over_z, u
 # mahjong.c:697:     i32_vec int_v = f32_vec_floor(v * (f32)tex_height);// & 1023;
	vmulps	%xmm2, %xmm1, %xmm1	 # v, tmp188, _21
 # mahjong.c:696:     i32_vec int_u = f32_vec_floor(u * (f32)tex_width); // (i32)fast_floor(u * (f32)tex_width);// & 1023;
	vmulps	%xmm3, %xmm0, %xmm0	 # tmp184, u, _19
 # mahjong.c:454:     int i = (int)x;
	vcvttps2dq	%xmm0, %xmm3	 # _19, vect_i_110.885
 # mahjong.c:455:     return i - (i > x);
	vcvtdq2ps	%xmm3, %xmm4	 # vect_i_110.885, vect__111.886
	vcmpltps	%xmm4, %xmm0, %xmm0	 #, vect__111.886, _19, tmp187
 # mahjong.c:455:     return i - (i > x);
	vpaddd	%xmm0, %xmm3, %xmm3	 # tmp187, vect_i_110.885, vect__114.889
 # mahjong.c:454:     int i = (int)x;
	vcvttps2dq	%xmm1, %xmm0	 # _21, vect_i_81.890
 # mahjong.c:455:     return i - (i > x);
	vcvtdq2ps	%xmm0, %xmm2	 # vect_i_81.890, vect__82.891
	vcmpltps	%xmm2, %xmm1, %xmm1	 #, vect__82.891, _21, tmp191
 # mahjong.c:699:     int_u &= (tex_width-1);
	vpbroadcastd	%eax, %xmm2	 # _69, tmp192
 # mahjong.c:700:     int_v &= (tex_height-1);
	leal	-1(%rdx), %eax	 #, _71
 # mahjong.c:455:     return i - (i > x);
	vpaddd	%xmm1, %xmm0, %xmm0	 # tmp191, vect_i_81.890, vect__85.894
 # mahjong.c:700:     int_v &= (tex_height-1);
	vpbroadcastd	%eax, %xmm1	 # _71, tmp194
	vpand	%xmm1, %xmm0, %xmm0	 # tmp194, vect__85.894, int_v
 # mahjong.c:702:     i32_vec scaled_v = tex_height * ((tex_width-1)-int_v);
	vpbroadcastd	%edx, %xmm1	 # tex_height, tmp197
 # mahjong.c:702:     i32_vec scaled_v = tex_height * ((tex_width-1)-int_v);
	vpsubd	%xmm0, %xmm2, %xmm0	 # int_v, tmp192, tmp196
 # mahjong.c:699:     int_u &= (tex_width-1);
	vpand	%xmm3, %xmm2, %xmm2	 # vect__114.889, tmp192, int_u
 # mahjong.c:702:     i32_vec scaled_v = tex_height * ((tex_width-1)-int_v);
	vpmulld	%xmm1, %xmm0, %xmm0	 # tmp197, tmp196, scaled_v
 # mahjong.c:703:     i32_vec uv = scaled_v + int_u;
	vpaddd	%xmm2, %xmm0, %xmm0	 # int_u, scaled_v, _26
 # mahjong.c:705:     tex_pal_idx[0] = texels[uv[0]];
	vmovd	%xmm0, %eax	 # _26, tmp202
	movslq	%eax, %rdx	 # tmp202, tmp203
 # mahjong.c:706:     tex_pal_idx[1] = texels[uv[1]];
	vpextrd	$1, %xmm0, %eax	 #, _26, tmp204
	movslq	%eax, %r8	 # tmp204, tmp205
 # mahjong.c:707:     tex_pal_idx[2] = texels[uv[2]];
	vpextrd	$2, %xmm0, %eax	 #, _26, tmp206
	movslq	%eax, %r9	 # tmp206, tmp207
 # mahjong.c:708:     tex_pal_idx[3] = texels[uv[3]];
	vpextrd	$3, %xmm0, %eax	 #, _26, tmp208
	cltq
 # mahjong.c:705:     tex_pal_idx[0] = texels[uv[0]];
	movzbl	(%rcx,%r8), %r8d	 # *_34, *_34
	movzbl	(%rcx,%rax), %eax	 # *_44, *_44
	movzbl	(%rcx,%r9), %r9d	 # *_39, *_39
	movzbl	(%rcx,%rdx), %edx	 # *_29, *_29
	sall	$8, %eax	 #, tmp212
	orl	%r9d, %eax	 # *_39, tmp213
	sall	$8, %eax	 #, tmp215
	orl	%r8d, %eax	 # *_34, tmp216
	sall	$8, %eax	 #, tmp218
	orl	%edx, %eax	 # *_29, tmp218
	vmovd	%eax, %xmm0	 # tmp218, tmp219
	vpmovzxbd	%xmm0, %xmm0	 # tmp219, vect__31.895
 # mahjong.c:718: }
	ret	
	.seh_endproc
	.p2align 4
	.globl	pixel_shader
	.def	pixel_shader;	.scl	2;	.type	32;	.endef
	.seh_proc	pixel_shader
pixel_shader:
	.seh_endprologue
	vxorps	%xmm5, %xmm5, %xmm5	 # tmp179
 # mahjong.c:724: ) {
	vmovaps	%xmm0, %xmm16	 # tmp175, z
 # mahjong.c:728:     f32 u_over_z = (w0 * v0u_over_z + w1 * v1u_over_z + w2 * v2u_over_z) * recip_area;
	vmulss	40(%rsp), %xmm1, %xmm4	 # v0u_over_z, w0, tmp138
 # mahjong.c:728:     f32 u_over_z = (w0 * v0u_over_z + w1 * v1u_over_z + w2 * v2u_over_z) * recip_area;
	vmulss	56(%rsp), %xmm2, %xmm0	 # v1u_over_z, w1, tmp139
 # mahjong.c:724: ) {
	vmovss	88(%rsp), %xmm17	 # recip_area, recip_area
 # mahjong.c:729:     f32 v_over_z = (w0 * v0v_over_z + w1 * v1v_over_z + w2 * v2v_over_z) * recip_area;
	vmulss	48(%rsp), %xmm1, %xmm1	 # v0v_over_z, w0, tmp146
 # mahjong.c:729:     f32 v_over_z = (w0 * v0v_over_z + w1 * v1v_over_z + w2 * v2v_over_z) * recip_area;
	vmulss	64(%rsp), %xmm2, %xmm2	 # v1v_over_z, w1, tmp147
 # mahjong.c:724: ) {
	movl	104(%rsp), %ecx	 # tex_width, tex_width
 # mahjong.c:455:     return i - (i > x);
	xorl	%eax, %eax	 # tmp156
 # mahjong.c:724: ) {
	movl	112(%rsp), %r8d	 # tex_height, tex_height
 # mahjong.c:728:     f32 u_over_z = (w0 * v0u_over_z + w1 * v1u_over_z + w2 * v2u_over_z) * recip_area;
	vaddss	%xmm0, %xmm4, %xmm4	 # tmp139, tmp138, tmp140
 # mahjong.c:728:     f32 u_over_z = (w0 * v0u_over_z + w1 * v1u_over_z + w2 * v2u_over_z) * recip_area;
	vmulss	72(%rsp), %xmm3, %xmm0	 # v2u_over_z, w2, tmp141
 # mahjong.c:729:     f32 v_over_z = (w0 * v0v_over_z + w1 * v1v_over_z + w2 * v2v_over_z) * recip_area;
	vmulss	80(%rsp), %xmm3, %xmm3	 # v2v_over_z, w2, tmp149
 # mahjong.c:728:     f32 u_over_z = (w0 * v0u_over_z + w1 * v1u_over_z + w2 * v2u_over_z) * recip_area;
	vaddss	%xmm0, %xmm4, %xmm4	 # tmp141, tmp140, tmp142
 # mahjong.c:733:     i32 int_u = (i32)fast_floor(u * (f32)tex_width);// & 1023;
	vcvtsi2ssl	%ecx, %xmm5, %xmm0	 # tex_width, tmp179, tmp180
 # mahjong.c:728:     f32 u_over_z = (w0 * v0u_over_z + w1 * v1u_over_z + w2 * v2u_over_z) * recip_area;
	vmulss	%xmm17, %xmm4, %xmm4	 # recip_area, tmp142, u_over_z
 # mahjong.c:730:     f32 u = (u_over_z * z);
	vmulss	%xmm16, %xmm4, %xmm4	 # z, u_over_z, u
 # mahjong.c:733:     i32 int_u = (i32)fast_floor(u * (f32)tex_width);// & 1023;
	vmulss	%xmm0, %xmm4, %xmm4	 # tmp145, u, _12
 # mahjong.c:729:     f32 v_over_z = (w0 * v0v_over_z + w1 * v1v_over_z + w2 * v2v_over_z) * recip_area;
	vaddss	%xmm2, %xmm1, %xmm0	 # tmp147, tmp146, tmp148
 # mahjong.c:734:     i32 int_v = (i32)fast_floor(v * (f32)tex_height);// & 1023;
	vcvtsi2ssl	%r8d, %xmm5, %xmm1	 # tex_height, tmp179, tmp181
 # mahjong.c:729:     f32 v_over_z = (w0 * v0v_over_z + w1 * v1v_over_z + w2 * v2v_over_z) * recip_area;
	vaddss	%xmm3, %xmm0, %xmm0	 # tmp149, tmp148, tmp150
 # mahjong.c:454:     int i = (int)x;
	vcvttss2sil	%xmm4, %edx	 # _12, i
 # mahjong.c:729:     f32 v_over_z = (w0 * v0v_over_z + w1 * v1v_over_z + w2 * v2v_over_z) * recip_area;
	vmulss	%xmm17, %xmm0, %xmm0	 # recip_area, tmp150, v_over_z
 # mahjong.c:731:     f32 v = (v_over_z * z);
	vmulss	%xmm16, %xmm0, %xmm0	 # z, v_over_z, v
 # mahjong.c:734:     i32 int_v = (i32)fast_floor(v * (f32)tex_height);// & 1023;
	vmulss	%xmm1, %xmm0, %xmm0	 # tmp153, v, _14
 # mahjong.c:454:     int i = (int)x;
	vcvttss2sil	%xmm0, %r9d	 # _14, i
 # mahjong.c:455:     return i - (i > x);
	vcvtsi2ssl	%r9d, %xmm5, %xmm1	 # i, tmp179, tmp182
 # mahjong.c:737:     u8 tex_pal_idx = texels[((tex_height-1)-int_v)*tex_width+int_u];
	notl	%r9d	 # tmp159
 # mahjong.c:455:     return i - (i > x);
	vcomiss	%xmm0, %xmm1	 # _14, tmp155
	seta	%al	 #, tmp156
 # mahjong.c:736:     int_v &= (tex_height-1);
	decl	%r8d	 # tmp161
 # mahjong.c:455:     return i - (i > x);
	vcvtsi2ssl	%edx, %xmm5, %xmm5	 # i, tmp179, tmp183
 # mahjong.c:737:     u8 tex_pal_idx = texels[((tex_height-1)-int_v)*tex_width+int_u];
	addl	%r9d, %eax	 # tmp159, tmp160
	andl	%r8d, %eax	 # tmp161, tmp162
 # mahjong.c:455:     return i - (i > x);
	xorl	%r8d, %r8d	 # tmp165
 # mahjong.c:737:     u8 tex_pal_idx = texels[((tex_height-1)-int_v)*tex_width+int_u];
	imull	%ecx, %eax	 # tex_width, tmp163
 # mahjong.c:455:     return i - (i > x);
	vcomiss	%xmm4, %xmm5	 # _12, tmp164
	seta	%r8b	 #, tmp165
 # mahjong.c:735:     int_u &= (tex_width-1);
	decl	%ecx	 # tmp169
 # mahjong.c:455:     return i - (i > x);
	subl	%r8d, %edx	 # tmp165, tmp168
 # mahjong.c:735:     int_u &= (tex_width-1);
	andl	%ecx, %edx	 # tmp169, int_u
 # mahjong.c:737:     u8 tex_pal_idx = texels[((tex_height-1)-int_v)*tex_width+int_u];
	addl	%edx, %eax	 # int_u, tmp171
 # mahjong.c:747:     return lit_pal_ptr[tex_pal_idx];// light_remap_table[16][WHITE];
	movq	96(%rsp), %rdx	 # texels, texels
 # mahjong.c:737:     u8 tex_pal_idx = texels[((tex_height-1)-int_v)*tex_width+int_u];
	cltq
 # mahjong.c:747:     return lit_pal_ptr[tex_pal_idx];// light_remap_table[16][WHITE];
	movzbl	(%rdx,%rax), %eax	 # *_21, *_21
 # mahjong.c:747:     return lit_pal_ptr[tex_pal_idx];// light_remap_table[16][WHITE];
	movq	120(%rsp), %rdx	 # lit_pal_ptr, lit_pal_ptr
	movzbl	(%rdx,%rax), %eax	 # *_23, *_23
 # mahjong.c:751: }
	ret	
	.seh_endproc
	.p2align 4
	.globl	triangle
	.def	triangle;	.scl	2;	.type	32;	.endef
	.seh_proc	triangle
triangle:
	pushq	%r15	 #
	.seh_pushreg	%r15
	pushq	%r14	 #
	.seh_pushreg	%r14
	pushq	%r13	 #
	.seh_pushreg	%r13
	pushq	%r12	 #
	.seh_pushreg	%r12
	pushq	%rbp	 #
	.seh_pushreg	%rbp
	pushq	%rdi	 #
	.seh_pushreg	%rdi
	pushq	%rsi	 #
	.seh_pushreg	%rsi
	pushq	%rbx	 #
	.seh_pushreg	%rbx
	subq	$152, %rsp	 #,
	.seh_stackalloc	152
	vmovups	%xmm6, 80(%rsp)	 #,
	.seh_savexmm	%xmm6, 80
	vmovups	%xmm7, 96(%rsp)	 #,
	.seh_savexmm	%xmm7, 96
	vmovups	%xmm8, 112(%rsp)	 #,
	.seh_savexmm	%xmm8, 112
	vmovups	%xmm9, 128(%rsp)	 #,
	.seh_savexmm	%xmm9, 128
	.seh_endprologue
 # mahjong.c:787:     f32 diffuse = CLAMP(avg_c, 0.0f, 1.0f);
	vxorps	%xmm3, %xmm3, %xmm3	 # tmp340
 # mahjong.c:783:     f32 avg_c = (c0+c1+c2)/3.0f;
	vmovss	40(%r8), %xmm0	 # tri_attributes_127(D)->c1, tri_attributes_127(D)->c1
	vaddss	36(%r8), %xmm0, %xmm0	 # tri_attributes_127(D)->c0, tri_attributes_127(D)->c1, tmp336
 # mahjong.c:770:     f32 iz0 = tri_attributes->inv_z1;
	vmovss	116(%r8), %xmm17	 # tri_attributes_127(D)->inv_z1, iz0
 # mahjong.c:766:     i32 start_y, i32 end_y) {
	movq	%r9, %rdi	 # tmp504, tex
 # mahjong.c:783:     f32 avg_c = (c0+c1+c2)/3.0f;
	vaddss	44(%r8), %xmm0, %xmm0	 # tri_attributes_127(D)->c2, tmp336, tmp338
 # mahjong.c:771:     f32 iz1 = tri_attributes->inv_z0;
	vmovss	112(%r8), %xmm18	 # tri_attributes_127(D)->inv_z0, iz1
 # mahjong.c:772:     f32 iz2 = tri_attributes->inv_z2;
	vmovss	120(%r8), %xmm19	 # tri_attributes_127(D)->inv_z2, iz2
 # mahjong.c:766:     i32 start_y, i32 end_y) {
	movq	%rdx, 232(%rsp)	 # tmp502, zbuffer
 # mahjong.c:783:     f32 avg_c = (c0+c1+c2)/3.0f;
	vdivss	.LC25(%rip), %xmm0, %xmm0	 #, tmp338, avg_c
 # mahjong.c:773:     vert3f v0 = tri_attributes->proj_v1;
	vmovss	12(%r8), %xmm29	 # tri_attributes_127(D)->proj_v1.x, v0$x
	vmovss	16(%r8), %xmm28	 # tri_attributes_127(D)->proj_v1.y, v0$y
 # mahjong.c:774:     vert3f v1 = tri_attributes->proj_v0;
	vmovss	(%r8), %xmm21	 # tri_attributes_127(D)->proj_v0.x, v1$x
	vmovss	4(%r8), %xmm16	 # tri_attributes_127(D)->proj_v0.y, v1$y
 # mahjong.c:775:     vert3f v2 = tri_attributes->proj_v2;
	vmovss	24(%r8), %xmm9	 # tri_attributes_127(D)->proj_v2.x, v2$x
	vmovss	28(%r8), %xmm1	 # tri_attributes_127(D)->proj_v2.y, v2$y
 # mahjong.c:777:     vert2f uv0 = tri_attributes->uv1;
	vmovss	56(%r8), %xmm7	 # tri_attributes_127(D)->uv1.x, uv0$x
	vmovss	60(%r8), %xmm5	 # tri_attributes_127(D)->uv1.y, uv0$y
 # mahjong.c:778:     vert2f uv1 = tri_attributes->uv0;
	vmovss	48(%r8), %xmm8	 # tri_attributes_127(D)->uv0.x, uv1$x
	vmovss	52(%r8), %xmm6	 # tri_attributes_127(D)->uv0.y, uv1$y
 # mahjong.c:779:     vert2f uv2 = tri_attributes->uv2;
	vmovss	64(%r8), %xmm4	 # tri_attributes_127(D)->uv2.x, uv2$x
	vmovss	68(%r8), %xmm2	 # tri_attributes_127(D)->uv2.y, uv2$y
 # mahjong.c:766:     i32 start_y, i32 end_y) {
	movl	264(%rsp), %r15d	 # end_x, end_x
	movl	280(%rsp), %r13d	 # end_y, end_y
 # mahjong.c:787:     f32 diffuse = CLAMP(avg_c, 0.0f, 1.0f);
	vcomiss	%xmm3, %xmm0	 # tmp340, avg_c
	jbe	.L472	 #,
 # mahjong.c:787:     f32 diffuse = CLAMP(avg_c, 0.0f, 1.0f);
	vmovss	.LC17(%rip), %xmm20	 #, tmp485
	leaq	144+light_remap_table(%rip), %rax	 #, _342
	vmovq	%rax, %xmm31	 # _342, _342
	vcomiss	%xmm0, %xmm20	 # avg_c, tmp485
	ja	.L475	 #,
.L391:
 # mahjong.c:806:     const i32 x0 = (i32)(v0.x * 16.0f);
	vmovss	.LC24(%rip), %xmm0	 #, tmp354
	vxorps	%xmm3, %xmm3, %xmm3	 # tmp505
 # mahjong.c:801:     f32 v2u_over_z = uv2.x * iz2;
	vmulss	%xmm4, %xmm19, %xmm26	 # uv2$x, iz2, v2u_over_z
 # mahjong.c:799:     f32 v1v_over_z = uv1.y * iz1;
	vmulss	%xmm6, %xmm18, %xmm25	 # uv1$y, iz1, v1v_over_z
 # mahjong.c:802:     f32 v2v_over_z = uv2.y* iz2;
	vmulss	%xmm2, %xmm19, %xmm27	 # uv2$y, iz2, v2v_over_z
 # mahjong.c:796:     f32 v0v_over_z = uv0.y * iz0;
	vmulss	%xmm5, %xmm17, %xmm23	 # uv0$y, iz0, v0v_over_z
 # mahjong.c:795:     f32 v0u_over_z = uv0.x * iz0;
	vmulss	%xmm7, %xmm17, %xmm22	 # uv0$x, iz0, v0u_over_z
 # mahjong.c:798:     f32 v1u_over_z = uv1.x * iz1;
	vmulss	%xmm8, %xmm18, %xmm24	 # uv1$x, iz1, v1u_over_z
 # mahjong.c:808:     const i32 x1 = (i32)(v1.x * 16.0f);
	vmulss	%xmm0, %xmm21, %xmm21	 # tmp354, v1$x, tmp357
 # mahjong.c:811:     const i32 y2 = (i32)(v2.y * 16.0f);
	vmulss	%xmm0, %xmm1, %xmm1	 # tmp354, v2$y, tmp363
 # mahjong.c:806:     const i32 x0 = (i32)(v0.x * 16.0f);
	vmulss	%xmm0, %xmm29, %xmm29	 # tmp354, v0$x, tmp353
 # mahjong.c:810:     const i32 x2 = (i32)(v2.x * 16.0f);
	vmulss	%xmm0, %xmm9, %xmm9	 # tmp354, v2$x, tmp361
 # mahjong.c:807:     const i32 y0 = (i32)(v0.y * 16.0f);
	vmulss	%xmm0, %xmm28, %xmm28	 # tmp354, v0$y, tmp355
 # mahjong.c:809:     const i32 y1 = (i32)(v1.y * 16.0f);
	vmulss	%xmm0, %xmm16, %xmm16	 # tmp354, v1$y, tmp359
 # mahjong.c:845:     f32 maxu = MAX(uv0.x, MAX(uv1.x, uv2.x));
	vmaxss	%xmm4, %xmm8, %xmm0	 # uv2$x, uv1$x, iftmp.21_114
 # mahjong.c:847:     f32 minu = MIN(uv0.x, MIN(uv1.x, uv2.x));
	vminss	%xmm4, %xmm8, %xmm4	 # uv2$x, uv1$x, uv2$x
 # mahjong.c:808:     const i32 x1 = (i32)(v1.x * 16.0f);
	vcvttss2sil	%xmm21, %r8d	 # tmp357, x1
 # mahjong.c:818:     i32 dx12 = x1 - x2;
	movl	%r8d, %r14d	 # x1, dx12
 # mahjong.c:811:     const i32 y2 = (i32)(v2.y * 16.0f);
	vcvttss2sil	%xmm1, %edx	 # tmp363, y2
 # mahjong.c:821:     i32 dy20 = y2 - y0;
	movl	%edx, %ebp	 # y2, dy20
 # mahjong.c:806:     const i32 x0 = (i32)(v0.x * 16.0f);
	vcvttss2sil	%xmm29, %r10d	 # tmp353, x0
 # mahjong.c:810:     const i32 x2 = (i32)(v2.x * 16.0f);
	vcvttss2sil	%xmm9, %eax	 # tmp361, x2
 # mahjong.c:816:     i32 dx01 = x0 - x1;
	movl	%r10d, %esi	 # x0, dx01
 # mahjong.c:818:     i32 dx12 = x1 - x2;
	subl	%eax, %r14d	 # x2, dx12
 # mahjong.c:807:     const i32 y0 = (i32)(v0.y * 16.0f);
	vcvttss2sil	%xmm28, %r9d	 # tmp355, y0
 # mahjong.c:809:     const i32 y1 = (i32)(v1.y * 16.0f);
	vcvttss2sil	%xmm16, %ecx	 # tmp359, y1
 # mahjong.c:816:     i32 dx01 = x0 - x1;
	subl	%r8d, %esi	 # x1, dx01
 # mahjong.c:821:     i32 dy20 = y2 - y0;
	subl	%r9d, %ebp	 # y0, dy20
 # mahjong.c:818:     i32 dx12 = x1 - x2;
	movl	%r14d, 12(%rsp)	 # dx12, %sfp
 # mahjong.c:819:     i32 dy12 = y1 - y2;
	movl	%ecx, %r14d	 # y1, dy12
 # mahjong.c:816:     i32 dx01 = x0 - x1;
	movl	%esi, 16(%rsp)	 # dx01, %sfp
 # mahjong.c:827:     i32 area = (dx01 * dy20 - dy01 * dx20);
	imull	%ebp, %esi	 # dy20, tmp365
 # mahjong.c:819:     i32 dy12 = y1 - y2;
	subl	%edx, %r14d	 # y2, dy12
 # mahjong.c:817:     i32 dy01 = y0 - y1;
	movl	%r9d, %ebx	 # y0, dy01
 # mahjong.c:841:     i32 maxy = MAX(y0, MAX(y1, y2));
	movl	%ecx, %r12d	 # y1, tmp373
 # mahjong.c:847:     f32 minu = MIN(uv0.x, MIN(uv1.x, uv2.x));
	vminss	%xmm4, %xmm7, %xmm4	 # uv2$x, uv0$x, uv2$x
 # mahjong.c:819:     i32 dy12 = y1 - y2;
	movl	%r14d, 8(%rsp)	 # dy12, %sfp
 # mahjong.c:820:     i32 dx20 = x2 - x0;
	movl	%eax, %r14d	 # x2, dx20
 # mahjong.c:817:     i32 dy01 = y0 - y1;
	subl	%ecx, %ebx	 # y1, dy01
 # mahjong.c:845:     f32 maxu = MAX(uv0.x, MAX(uv1.x, uv2.x));
	vmaxss	%xmm0, %xmm7, %xmm0	 # iftmp.21_114, uv0$x, iftmp.21_114
 # mahjong.c:820:     i32 dx20 = x2 - x0;
	subl	%r10d, %r14d	 # x0, dx20
 # mahjong.c:827:     i32 area = (dx01 * dy20 - dy01 * dx20);
	movl	%esi, %r11d	 # tmp365, tmp365
 # mahjong.c:846:     f32 maxv = MAX(uv0.y, MAX(uv1.y, uv2.y));
	vmaxss	%xmm2, %xmm6, %xmm1	 # uv2$y, uv1$y, iftmp.24_116
 # mahjong.c:848:     f32 minv = MIN(uv0.y, MIN(uv1.y, uv2.y));
	vminss	%xmm2, %xmm6, %xmm2	 # uv2$y, uv1$y, uv2$y
 # mahjong.c:827:     i32 area = (dx01 * dy20 - dy01 * dx20);
	movl	%r14d, %esi	 # dx20, tmp366
 # mahjong.c:820:     i32 dx20 = x2 - x0;
	movl	%r14d, 36(%rsp)	 # dx20, %sfp
 # mahjong.c:834:     int tex_height = tex->height;
	movl	36(%rdi), %r14d	 # tex_164(D)->height, tex_height
 # mahjong.c:835:     u8* texels = tex->texels;
	vmovq	8(%rdi), %xmm21	 # tex_164(D)->texels, texels
 # mahjong.c:827:     i32 area = (dx01 * dy20 - dy01 * dx20);
	imull	%ebx, %esi	 # dy01, tmp366
 # mahjong.c:849:     f32 biggest_duv = MAX(absf(maxu-minu), absf(maxv-minv));
	vsubss	%xmm4, %xmm0, %xmm0	 # uv2$x, iftmp.21_114, _22
 # mahjong.c:666:     if(a < 0.0f) { return -a; }
	vxorps	.LC12(%rip), %xmm0, %xmm6	 #, _22, tmp516
 # mahjong.c:848:     f32 minv = MIN(uv0.y, MIN(uv1.y, uv2.y));
	vminss	%xmm2, %xmm5, %xmm2	 # uv2$y, uv0$y, uv2$y
 # mahjong.c:846:     f32 maxv = MAX(uv0.y, MAX(uv1.y, uv2.y));
	vmaxss	%xmm1, %xmm5, %xmm1	 # iftmp.24_116, uv0$y, iftmp.24_116
 # mahjong.c:666:     if(a < 0.0f) { return -a; }
	vxorps	%xmm4, %xmm4, %xmm4	 # tmp374
 # mahjong.c:827:     i32 area = (dx01 * dy20 - dy01 * dx20);
	subl	%esi, %r11d	 # tmp366, area
 # mahjong.c:833:     int tex_width = tex->width;
	movl	32(%rdi), %esi	 # tex_164(D)->width, tex_width
 # mahjong.c:838:     i32 minx = MIN(x0, MIN(x1, x2));
	cmpl	%r8d, %r10d	 # x1, x0
 # mahjong.c:666:     if(a < 0.0f) { return -a; }
	vmovaps	%xmm0, %xmm5	 # _22, tmp517
 # mahjong.c:834:     int tex_height = tex->height;
	movl	%r14d, 24(%rsp)	 # tex_height, %sfp
 # mahjong.c:838:     i32 minx = MIN(x0, MIN(x1, x2));
	movl	%r8d, %r14d	 # x1, tmp370
 # mahjong.c:830:     f32 recip_area = 1.0f / (f32)area;
	vcvtsi2ssl	%r11d, %xmm3, %xmm16	 # area, tmp505, tmp506
 # mahjong.c:666:     if(a < 0.0f) { return -a; }
	vcmpltss	%xmm4, %xmm0, %xmm0	 #, tmp374, _22, tmp518
 # mahjong.c:838:     i32 minx = MIN(x0, MIN(x1, x2));
	cmovle	%r10d, %r14d	 # x0,, tmp370
 # mahjong.c:849:     f32 biggest_duv = MAX(absf(maxu-minu), absf(maxv-minv));
	vsubss	%xmm2, %xmm1, %xmm1	 # uv2$y, iftmp.24_116, _24
 # mahjong.c:666:     if(a < 0.0f) { return -a; }
	vmovaps	%xmm4, %xmm2	 #, tmp378
 # mahjong.c:830:     f32 recip_area = 1.0f / (f32)area;
	vdivss	%xmm16, %xmm20, %xmm16	 # tmp368, tmp485, recip_area
 # mahjong.c:838:     i32 minx = MIN(x0, MIN(x1, x2));
	cmpl	%eax, %r14d	 # x2, tmp370
 # mahjong.c:666:     if(a < 0.0f) { return -a; }
	vblendvps	%xmm0, %xmm6, %xmm5, %xmm0	 # tmp518, tmp516, tmp517, _22
	vxorps	.LC12(%rip), %xmm1, %xmm5	 #, _24, tmp519
 # mahjong.c:838:     i32 minx = MIN(x0, MIN(x1, x2));
	cmovg	%eax, %r14d	 # tmp370,, x2, tmp370
 # mahjong.c:839:     i32 maxx = MAX(x0, MAX(x1, x2));
	cmpl	%r8d, %r10d	 # x1, x0
 # mahjong.c:833:     int tex_width = tex->width;
	movl	%esi, 20(%rsp)	 # tex_width, %sfp
 # mahjong.c:839:     i32 maxx = MAX(x0, MAX(x1, x2));
	movl	%r8d, %esi	 # x1, tmp371
 # mahjong.c:838:     i32 minx = MIN(x0, MIN(x1, x2));
	vmovd	%r14d, %xmm28	 # tmp370, minx
 # mahjong.c:840:     i32 miny = MIN(y0, MIN(y1, y2));
	movl	%ecx, %r14d	 # y1, tmp372
 # mahjong.c:839:     i32 maxx = MAX(x0, MAX(x1, x2));
	cmovge	%r10d, %esi	 # x0,, tmp371
 # mahjong.c:666:     if(a < 0.0f) { return -a; }
	vmovaps	%xmm1, %xmm4	 # _24, tmp520
	vcmpltss	%xmm2, %xmm1, %xmm1	 #, tmp378, _24, tmp521
 # mahjong.c:839:     i32 maxx = MAX(x0, MAX(x1, x2));
	cmpl	%eax, %esi	 # x2, tmp371
	cmovl	%eax, %esi	 # tmp371,, x2, maxx
 # mahjong.c:840:     i32 miny = MIN(y0, MIN(y1, y2));
	cmpl	%ecx, %r9d	 # y1, y0
	cmovle	%r9d, %r14d	 # y0,, tmp372
 # mahjong.c:666:     if(a < 0.0f) { return -a; }
	vblendvps	%xmm1, %xmm5, %xmm4, %xmm1	 # tmp521, tmp519, tmp520, _24
 # mahjong.c:840:     i32 miny = MIN(y0, MIN(y1, y2));
	cmpl	%edx, %r14d	 # y2, tmp372
 # mahjong.c:849:     f32 biggest_duv = MAX(absf(maxu-minu), absf(maxv-minv));
	vmaxss	%xmm1, %xmm0, %xmm0	 # _24, _22, _22
 # mahjong.c:840:     i32 miny = MIN(y0, MIN(y1, y2));
	cmovg	%edx, %r14d	 # tmp372,, y2, tmp372
 # mahjong.c:841:     i32 maxy = MAX(y0, MAX(y1, y2));
	cmpl	%ecx, %r9d	 # y1, y0
	cmovge	%r9d, %r12d	 # y0,, tmp373
	cmpl	%edx, %r12d	 # y2, tmp373
	cmovl	%edx, %r12d	 # tmp373,, y2, tmp373
	movl	%r12d, 32(%rsp)	 # tmp373, %sfp
 # mahjong.c:853:     minx = CLAMP((minx + 15) >> 4, start_x, end_x);
	vmovd	%xmm28, %r12d	 # minx, minx
	leal	15(%r12), %r11d	 #, tmp382
	sarl	$4, %r11d	 #, tmp383
	cmpl	256(%rsp), %r11d	 # start_x, tmp383
	cmovl	256(%rsp), %r11d	 # tmp383,, start_x, _30
 # mahjong.c:853:     minx = CLAMP((minx + 15) >> 4, start_x, end_x);
	cmpl	%r15d, %r11d	 # end_x, _30
	cmovg	%r15d, %r11d	 # _30,, end_x, _30
	movl	%r11d, 28(%rsp)	 # _30, %sfp
 # mahjong.c:854:     maxx = CLAMP((maxx + 15) >> 4, start_x, end_x);
	leal	15(%rsi), %r11d	 #, tmp384
	sarl	$4, %r11d	 #, tmp385
	cmpl	256(%rsp), %r11d	 # start_x, tmp385
	cmovl	256(%rsp), %r11d	 # tmp385,, start_x, _33
 # mahjong.c:854:     maxx = CLAMP((maxx + 15) >> 4, start_x, end_x);
	cmpl	%r15d, %r11d	 # end_x, _33
	cmovle	%r11d, %r15d	 # _33,, end_x
 # mahjong.c:855:     miny = CLAMP((miny + 15) >> 4, start_y, end_y);
	leal	15(%r14), %r11d	 #, tmp386
	sarl	$4, %r11d	 #, tmp387
 # mahjong.c:854:     maxx = CLAMP((maxx + 15) >> 4, start_x, end_x);
	movl	%r15d, 60(%rsp)	 # end_x, %sfp
 # mahjong.c:855:     miny = CLAMP((miny + 15) >> 4, start_y, end_y);
	cmpl	272(%rsp), %r11d	 # start_y, tmp387
 # mahjong.c:856:     maxy = CLAMP((maxy + 15) >> 4, start_y, end_y);
	movl	32(%rsp), %r15d	 # %sfp, maxy
 # mahjong.c:855:     miny = CLAMP((miny + 15) >> 4, start_y, end_y);
	cmovl	272(%rsp), %r11d	 # tmp387,, start_y, _36
 # mahjong.c:855:     miny = CLAMP((miny + 15) >> 4, start_y, end_y);
	cmpl	%r13d, %r11d	 # end_y, _36
	movl	%r11d, %r12d	 # _36, _36
 # mahjong.c:856:     maxy = CLAMP((maxy + 15) >> 4, start_y, end_y);
	leal	15(%r15), %r11d	 #, tmp388
 # mahjong.c:855:     miny = CLAMP((miny + 15) >> 4, start_y, end_y);
	cmovg	%r13d, %r12d	 # _36,, end_y, _36
 # mahjong.c:856:     maxy = CLAMP((maxy + 15) >> 4, start_y, end_y);
	sarl	$4, %r11d	 #, tmp389
	cmpl	272(%rsp), %r11d	 # start_y, tmp389
	cmovl	272(%rsp), %r11d	 # tmp389,, start_y, _39
 # mahjong.c:856:     maxy = CLAMP((maxy + 15) >> 4, start_y, end_y);
	cmpl	%r13d, %r11d	 # end_y, _39
	cmovle	%r11d, %r13d	 # _39,, maxy
 # mahjong.c:860:     if(tex_width > 1 && duv_per_pix > 3.0f) {
	movl	20(%rsp), %r11d	 # %sfp, tex_width
	cmpl	$1, %r11d	 #, tex_width
	jle	.L415	 #,
 # mahjong.c:852:     f32 duv_per_pix = (biggest_duv*(f32)tex_width)/(f32)dpix;
	vcvtsi2ssl	%r11d, %xmm3, %xmm1	 # tex_width, tmp505, tmp507
 # mahjong.c:843:     i32 pix_dy = (maxy-miny)>>4;
	subl	%r14d, %r15d	 # miny, maxy
 # mahjong.c:842:     i32 pix_dx = (maxx-minx)>>4;
	vmovd	%xmm28, %r11d	 # minx, minx
 # mahjong.c:852:     f32 duv_per_pix = (biggest_duv*(f32)tex_width)/(f32)dpix;
	vmulss	%xmm0, %xmm1, %xmm0	 # _22, tmp390, tmp391
 # mahjong.c:842:     i32 pix_dx = (maxx-minx)>>4;
	subl	%r11d, %esi	 # minx, tmp393
 # mahjong.c:843:     i32 pix_dy = (maxy-miny)>>4;
	movl	%r15d, %r11d	 # maxy, tmp395
 # mahjong.c:842:     i32 pix_dx = (maxx-minx)>>4;
	sarl	$4, %esi	 #, pix_dx
 # mahjong.c:843:     i32 pix_dy = (maxy-miny)>>4;
	sarl	$4, %r11d	 #, pix_dy
 # mahjong.c:844:     i32 dpix = MAX(1, MIN(pix_dx, pix_dy));
	cmpl	%r11d, %esi	 # pix_dy, pix_dx
	cmovle	%esi, %r11d	 # pix_dx,, dpix
 # mahjong.c:844:     i32 dpix = MAX(1, MIN(pix_dx, pix_dy));
	movl	$1, %esi	 #, tmp522
	testl	%r11d, %r11d	 # dpix
	cmovle	%esi, %r11d	 # dpix,, tmp522, dpix
 # mahjong.c:852:     f32 duv_per_pix = (biggest_duv*(f32)tex_width)/(f32)dpix;
	vcvtsi2ssl	%r11d, %xmm3, %xmm1	 # dpix, tmp505, tmp508
 # mahjong.c:852:     f32 duv_per_pix = (biggest_duv*(f32)tex_width)/(f32)dpix;
	vdivss	%xmm1, %xmm0, %xmm0	 # tmp397, tmp391, duv_per_pix
 # mahjong.c:860:     if(tex_width > 1 && duv_per_pix > 3.0f) {
	vcomiss	.LC25(%rip), %xmm0	 #, duv_per_pix
	ja	.L476	 #,
.L415:
 # mahjong.c:877:     i32 e12 = dy12 * x1 - dx12 * y1;
	movl	8(%rsp), %edi	 # %sfp, dy12
 # mahjong.c:876:     i32 e01 = dy01 * x0 - dx01 * y0;
	movl	16(%rsp), %esi	 # %sfp, dx01
 # mahjong.c:876:     i32 e01 = dy01 * x0 - dx01 * y0;
	imull	%ebx, %r10d	 # dy01, tmp398
 # mahjong.c:878:     i32 e20 = dy20 * x2 - dx20 * y2;
	imull	%ebp, %eax	 # dy20, tmp402
 # mahjong.c:877:     i32 e12 = dy12 * x1 - dx12 * y1;
	imull	%edi, %r8d	 # dy12, tmp400
 # mahjong.c:877:     i32 e12 = dy12 * x1 - dx12 * y1;
	movl	12(%rsp), %edi	 # %sfp, dx12
 # mahjong.c:876:     i32 e01 = dy01 * x0 - dx01 * y0;
	imull	%esi, %r9d	 # dx01, tmp399
 # mahjong.c:876:     i32 e01 = dy01 * x0 - dx01 * y0;
	subl	%r9d, %r10d	 # tmp399, tmp398
 # mahjong.c:877:     i32 e12 = dy12 * x1 - dx12 * y1;
	imull	%edi, %ecx	 # dx12, tmp401
 # mahjong.c:877:     i32 e12 = dy12 * x1 - dx12 * y1;
	movl	%r8d, %edi	 # tmp400, tmp400
 # mahjong.c:876:     i32 e01 = dy01 * x0 - dx01 * y0;
	movl	%r10d, %r15d	 # tmp398, e01
 # mahjong.c:877:     i32 e12 = dy12 * x1 - dx12 * y1;
	subl	%ecx, %edi	 # tmp401, tmp400
 # mahjong.c:878:     i32 e20 = dy20 * x2 - dx20 * y2;
	movl	36(%rsp), %ecx	 # %sfp, dx20
	imull	%ecx, %edx	 # dx20, tmp403
 # mahjong.c:878:     i32 e20 = dy20 * x2 - dx20 * y2;
	subl	%edx, %eax	 # tmp403, e20
 # mahjong.c:888:     if (dy01 < 0 || (dy01 == 0 && dx01 > 0)) {
	testl	%ebx, %ebx	 # dy01
	js	.L418	 #,
 # mahjong.c:888:     if (dy01 < 0 || (dy01 == 0 && dx01 > 0)) {
	jne	.L435	 #,
	testl	%esi, %esi	 # dx01
	jle	.L435	 #,
.L418:
 # mahjong.c:889:         c01++;
	leal	1(%r15), %r8d	 #, c01
.L419:
 # mahjong.c:891:     if (dy12 < 0 || (dy12 == 0 && dx12 > 0)) {
	movl	8(%rsp), %r9d	 # %sfp,
	testl	%r9d, %r9d	 #
	js	.L420	 #,
 # mahjong.c:891:     if (dy12 < 0 || (dy12 == 0 && dx12 > 0)) {
	jne	.L436	 #,
	movl	12(%rsp), %ecx	 # %sfp,
	testl	%ecx, %ecx	 #
	jle	.L436	 #,
.L420:
 # mahjong.c:892:         c12++;
	leal	1(%rdi), %r11d	 #, c12
.L421:
 # mahjong.c:894:     if (dy20 < 0 || (dy20 == 0 && dx20 > 0)) {
	testl	%ebp, %ebp	 # dy20
	js	.L422	 #,
 # mahjong.c:894:     if (dy20 < 0 || (dy20 == 0 && dx20 > 0)) {
	jne	.L437	 #,
	movl	36(%rsp), %edx	 # %sfp,
	testl	%edx, %edx	 #
	jle	.L437	 #,
.L422:
 # mahjong.c:895:         c20++;
	leal	1(%rax), %r10d	 #, c20
.L423:
 # mahjong.c:898:     i32 startX = minx << 4;
	movl	28(%rsp), %ecx	 # %sfp, startX
 # mahjong.c:900:     i32 cy01 = c01 + dx01 * startY - dy01 * startX;
	movl	16(%rsp), %r9d	 # %sfp, _55
 # mahjong.c:899:     i32 startY = miny << 4;
	movl	%r12d, %edx	 # miny, startY
 # mahjong.c:900:     i32 cy01 = c01 + dx01 * startY - dy01 * startX;
	movl	%ebx, %esi	 # dy01, _57
 # mahjong.c:901:     i32 cy12 = c12 + dx12 * startY - dy12 * startX;
	movl	8(%rsp), %r14d	 # %sfp, _60
 # mahjong.c:899:     i32 startY = miny << 4;
	sall	$4, %edx	 #, startY
 # mahjong.c:898:     i32 startX = minx << 4;
	sall	$4, %ecx	 #, startX
 # mahjong.c:900:     i32 cy01 = c01 + dx01 * startY - dy01 * startX;
	imull	%edx, %r9d	 # startY, _55
 # mahjong.c:900:     i32 cy01 = c01 + dx01 * startY - dy01 * startX;
	imull	%ecx, %esi	 # startX, _57
 # mahjong.c:901:     i32 cy12 = c12 + dx12 * startY - dy12 * startX;
	imull	%ecx, %r14d	 # startX, _60
 # mahjong.c:900:     i32 cy01 = c01 + dx01 * startY - dy01 * startX;
	addl	%r9d, %r8d	 # _55, tmp416
 # mahjong.c:902:     i32 cy20 = c20 + dx20 * startY - dy20 * startX;
	imull	%ebp, %ecx	 # dy20, _63
 # mahjong.c:903:     i32 ey01 = e01 + dx01 * startY - dy01 * startX;
	addl	%r15d, %r9d	 # e01, tmp419
 # mahjong.c:900:     i32 cy01 = c01 + dx01 * startY - dy01 * startX;
	subl	%esi, %r8d	 # _57, tmp416
	movl	%r8d, 52(%rsp)	 # tmp416, %sfp
 # mahjong.c:901:     i32 cy12 = c12 + dx12 * startY - dy12 * startX;
	movl	12(%rsp), %r8d	 # %sfp, _58
 # mahjong.c:906:     dy01 <<= 4;
	sall	$4, %ebx	 #, dy01
 # mahjong.c:901:     i32 cy12 = c12 + dx12 * startY - dy12 * startX;
	imull	%edx, %r8d	 # startY, _58
 # mahjong.c:901:     i32 cy12 = c12 + dx12 * startY - dy12 * startX;
	addl	%r8d, %r11d	 # _58, tmp417
 # mahjong.c:904:     i32 ey12 = e12 + dx12 * startY - dy12 * startX;
	addl	%edi, %r8d	 # e12, tmp420
 # mahjong.c:901:     i32 cy12 = c12 + dx12 * startY - dy12 * startX;
	subl	%r14d, %r11d	 # _60, tmp417
 # mahjong.c:904:     i32 ey12 = e12 + dx12 * startY - dy12 * startX;
	movl	%r8d, %edi	 # tmp420, tmp420
 # mahjong.c:910:     dx12 <<= 4;
	movl	12(%rsp), %r8d	 # %sfp, dx12
 # mahjong.c:901:     i32 cy12 = c12 + dx12 * startY - dy12 * startX;
	movl	%r11d, 32(%rsp)	 # tmp417, %sfp
 # mahjong.c:902:     i32 cy20 = c20 + dx20 * startY - dy20 * startX;
	movl	36(%rsp), %r11d	 # %sfp, dx20
 # mahjong.c:904:     i32 ey12 = e12 + dx12 * startY - dy12 * startX;
	subl	%r14d, %edi	 # _60, tmp420
	movl	%edi, 44(%rsp)	 # tmp420, %sfp
 # mahjong.c:908:     dy20 <<= 4;
	movl	%ebp, %edi	 # dy20, dy20
	sall	$4, %edi	 #, dy20
 # mahjong.c:910:     dx12 <<= 4;
	sall	$4, %r8d	 #, dx12
 # mahjong.c:902:     i32 cy20 = c20 + dx20 * startY - dy20 * startX;
	imull	%r11d, %edx	 # dx20, _61
 # mahjong.c:910:     dx12 <<= 4;
	movl	%r8d, 68(%rsp)	 # dx12, %sfp
 # mahjong.c:911:     dx20 <<= 4;
	sall	$4, %r11d	 #, dx20
 # mahjong.c:902:     i32 cy20 = c20 + dx20 * startY - dy20 * startX;
	addl	%edx, %r10d	 # _61, tmp418
 # mahjong.c:905:     i32 ey20 = e20 + dx20 * startY - dy20 * startX;
	addl	%eax, %edx	 # e20, tmp421
 # mahjong.c:911:     dx20 <<= 4;
	movl	%r11d, 72(%rsp)	 # dx20, %sfp
 # mahjong.c:902:     i32 cy20 = c20 + dx20 * startY - dy20 * startX;
	subl	%ecx, %r10d	 # _63, tmp418
 # mahjong.c:905:     i32 ey20 = e20 + dx20 * startY - dy20 * startX;
	subl	%ecx, %edx	 # _63, tmp421
 # mahjong.c:902:     i32 cy20 = c20 + dx20 * startY - dy20 * startX;
	movl	%r10d, 36(%rsp)	 # tmp418, %sfp
 # mahjong.c:903:     i32 ey01 = e01 + dx01 * startY - dy01 * startX;
	movl	%r9d, %r10d	 # tmp419, tmp419
 # mahjong.c:909:     dx01 <<= 4;
	movl	16(%rsp), %r9d	 # %sfp, dx01
 # mahjong.c:905:     i32 ey20 = e20 + dx20 * startY - dy20 * startX;
	movl	%edx, 48(%rsp)	 # tmp421, %sfp
 # mahjong.c:903:     i32 ey01 = e01 + dx01 * startY - dy01 * startX;
	subl	%esi, %r10d	 # _57, tmp419
 # mahjong.c:907:     dy12 <<= 4;
	movl	8(%rsp), %esi	 # %sfp, dy12
 # mahjong.c:903:     i32 ey01 = e01 + dx01 * startY - dy01 * startX;
	movl	%r10d, 40(%rsp)	 # tmp419, %sfp
 # mahjong.c:909:     dx01 <<= 4;
	sall	$4, %r9d	 #, dx01
 # mahjong.c:907:     dy12 <<= 4;
	sall	$4, %esi	 #, dy12
 # mahjong.c:909:     dx01 <<= 4;
	movl	%r9d, 64(%rsp)	 # dx01, %sfp
 # mahjong.c:914:     for (i32 y = miny; y < maxy; y++) {
	cmpl	%r13d, %r12d	 # maxy, miny
	jge	.L438	 #,
 # mahjong.c:945:                     render_target[TILE_IDX(x-start_x,y-start_y)] = pal_idx; //*row = pal_idx;
	leaq	render_target(%rip), %rax	 #, tmp494
	subl	272(%rsp), %r13d	 # start_y, maxy
	movl	60(%rsp), %ebp	 # %sfp, _388
	movl	%r12d, %r10d	 # miny, miny
	vmovq	%rax, %xmm30	 # tmp494, tmp494
 # mahjong.c:736:     int_v &= (tex_height-1);
	movl	24(%rsp), %eax	 # %sfp, tex_height
	subl	272(%rsp), %r10d	 # start_y, miny
	subl	256(%rsp), %ebp	 # start_x, _388
	movl	52(%rsp), %r12d	 # %sfp, cy01
	vmovdqa64	%xmm31, %xmm5	 # _342, _342
	movl	%r13d, 76(%rsp)	 # maxy, %sfp
 # mahjong.c:793:     int drew_pixel = 0;
	xorl	%r13d, %r13d	 # <retval>
 # mahjong.c:736:     int_v &= (tex_height-1);
	decl	%eax	 # tmp495
	movl	%r13d, %r14d	 # <retval>, <retval>
	vmovd	%eax, %xmm29	 # tmp495, tmp495
 # mahjong.c:735:     int_u &= (tex_width-1);
	movl	20(%rsp), %eax	 # %sfp, tex_width
	decl	%eax	 # tmp496
	vmovd	%eax, %xmm28	 # tmp496, tmp496
	.p2align 4
	.p2align 3
.L425:
 # mahjong.c:929:         for (i32 x = minx; x < maxx; x++) {
	movl	60(%rsp), %ecx	 # %sfp, maxx
	cmpl	%ecx, 28(%rsp)	 # maxx, %sfp
	jge	.L430	 #,
 # mahjong.c:930:             f32 zbuf_val = zbuffer[TILE_IDX(x-start_x,y-start_y)];//*zbuf_row;
	movl	%r10d, %r11d	 # ivtmp.945, tmp422
	leal	(%r10,%r10), %eax	 #, tmp424
 # mahjong.c:932:                 f32 w0 = (f32)ex12;
	movl	44(%rsp), %r15d	 # %sfp, tmp486
 # mahjong.c:917:         i32 cx20 = cy20;
	movl	36(%rsp), %r13d	 # %sfp, cy20
 # mahjong.c:930:             f32 zbuf_val = zbuffer[TILE_IDX(x-start_x,y-start_y)];//*zbuf_row;
	andl	$-2, %r11d	 #, tmp422
	andl	$2, %eax	 #, tmp425
	movl	28(%rsp), %edx	 # %sfp, ivtmp.923
 # mahjong.c:934:                 f32 w2 = (f32)ex01;
	movl	%r10d, 56(%rsp)	 # ivtmp.945, %sfp
	subl	256(%rsp), %edx	 # start_x, ivtmp.923
 # mahjong.c:915:         i32 cx01 = cy01;
	movl	%r12d, %ecx	 # cy01, cx01
 # mahjong.c:934:                 f32 w2 = (f32)ex01;
	vmovq	%xmm5, %r10	 # _342, _342
	movl	%r12d, 52(%rsp)	 # cy01, %sfp
 # mahjong.c:930:             f32 zbuf_val = zbuffer[TILE_IDX(x-start_x,y-start_y)];//*zbuf_row;
	sall	$6, %r11d	 #, tmp423
	orl	%eax, %r11d	 # tmp425, _308
 # mahjong.c:916:         i32 cx12 = cy12;
	movl	32(%rsp), %eax	 # %sfp, cy12
 # mahjong.c:917:         i32 cx20 = cy20;
	movl	%r13d, %r9d	 # cy20, cx20
 # mahjong.c:934:                 f32 w2 = (f32)ex01;
	movl	%r11d, 16(%rsp)	 # _308, %sfp
 # mahjong.c:916:         i32 cx12 = cy12;
	movl	%eax, %r8d	 # cy12, cx12
 # mahjong.c:932:                 f32 w0 = (f32)ex12;
	subl	%eax, %r15d	 # cy12, tmp486
 # mahjong.c:933:                 f32 w1 = (f32)ex20;
	movl	48(%rsp), %eax	 # %sfp, tmp487
	subl	%r13d, %eax	 # cy20, tmp487
	movl	%eax, 8(%rsp)	 # tmp487, %sfp
 # mahjong.c:934:                 f32 w2 = (f32)ex01;
	movl	40(%rsp), %eax	 # %sfp, tmp488
	subl	%r12d, %eax	 # cy01, tmp488
	movl	%eax, 12(%rsp)	 # tmp488, %sfp
	.p2align 4
	.p2align 3
.L428:
 # mahjong.c:931:             if (!((cx01|cx12|cx20)>>31)) { // check the sign bit
	movl	%ecx, %eax	 # cx01, tmp426
	orl	%r8d, %eax	 # cx12, tmp426
 # mahjong.c:931:             if (!((cx01|cx12|cx20)>>31)) { // check the sign bit
	orl	%r9d, %eax	 # cx20, tmp523
	js	.L426	 #,
 # mahjong.c:930:             f32 zbuf_val = zbuffer[TILE_IDX(x-start_x,y-start_y)];//*zbuf_row;
	movl	16(%rsp), %r11d	 # %sfp, _308
	movl	%edx, %r13d	 # ivtmp.923, tmp430
	leal	(%rdx,%rdx), %eax	 #, tmp428
	andl	$1, %r13d	 #, tmp430
	andl	$-4, %eax	 #, tmp429
	orl	%r11d, %r13d	 # _308, tmp431
	orl	%r13d, %eax	 # tmp431, _78
 # mahjong.c:932:                 f32 w0 = (f32)ex12;
	leal	(%r15,%r8), %r13d	 #, ex12
 # mahjong.c:930:             f32 zbuf_val = zbuffer[TILE_IDX(x-start_x,y-start_y)];//*zbuf_row;
	movslq	%eax, %r11	 # _78, _78
 # mahjong.c:930:             f32 zbuf_val = zbuffer[TILE_IDX(x-start_x,y-start_y)];//*zbuf_row;
	movq	232(%rsp), %rax	 # zbuffer, tmp632
 # mahjong.c:932:                 f32 w0 = (f32)ex12;
	vcvtsi2ssl	%r13d, %xmm3, %xmm0	 # ex12, tmp505, tmp509
 # mahjong.c:935:                 f32 inv_z = (w0 * iz0 + w1 * iz1 +  w2 * iz2) * recip_area;
	vmulss	%xmm0, %xmm17, %xmm1	 # w0, iz0, tmp440
 # mahjong.c:930:             f32 zbuf_val = zbuffer[TILE_IDX(x-start_x,y-start_y)];//*zbuf_row;
	leaq	(%rax,%r11,4), %r12	 #, _81
 # mahjong.c:933:                 f32 w1 = (f32)ex20;
	movl	8(%rsp), %eax	 # %sfp, tmp487
	leal	(%rax,%r9), %r13d	 #, ex20
 # mahjong.c:934:                 f32 w2 = (f32)ex01;
	movl	12(%rsp), %eax	 # %sfp, tmp488
 # mahjong.c:933:                 f32 w1 = (f32)ex20;
	vcvtsi2ssl	%r13d, %xmm3, %xmm7	 # ex20, tmp505, tmp510
 # mahjong.c:935:                 f32 inv_z = (w0 * iz0 + w1 * iz1 +  w2 * iz2) * recip_area;
	vmulss	%xmm7, %xmm18, %xmm2	 # w1, iz1, tmp441
 # mahjong.c:935:                 f32 inv_z = (w0 * iz0 + w1 * iz1 +  w2 * iz2) * recip_area;
	vaddss	%xmm2, %xmm1, %xmm1	 # tmp441, tmp440, tmp442
 # mahjong.c:934:                 f32 w2 = (f32)ex01;
	leal	(%rax,%rcx), %r13d	 #, ex01
	vcvtsi2ssl	%r13d, %xmm3, %xmm6	 # ex01, tmp505, tmp511
 # mahjong.c:935:                 f32 inv_z = (w0 * iz0 + w1 * iz1 +  w2 * iz2) * recip_area;
	vmulss	%xmm6, %xmm19, %xmm2	 # w2, iz2, tmp443
 # mahjong.c:935:                 f32 inv_z = (w0 * iz0 + w1 * iz1 +  w2 * iz2) * recip_area;
	vaddss	%xmm2, %xmm1, %xmm1	 # tmp443, tmp442, tmp444
 # mahjong.c:935:                 f32 inv_z = (w0 * iz0 + w1 * iz1 +  w2 * iz2) * recip_area;
	vmulss	%xmm16, %xmm1, %xmm1	 # recip_area, tmp444, inv_z
 # mahjong.c:938:                 if(inv_z > zbuf_val) {
	vcomiss	(%r12), %xmm1	 # *_81, inv_z
	jbe	.L426	 #,
 # mahjong.c:728:     f32 u_over_z = (w0 * v0u_over_z + w1 * v1u_over_z + w2 * v2u_over_z) * recip_area;
	vmulss	%xmm7, %xmm24, %xmm9	 # w1, v1u_over_z, tmp447
 # mahjong.c:728:     f32 u_over_z = (w0 * v0u_over_z + w1 * v1u_over_z + w2 * v2u_over_z) * recip_area;
	vmulss	%xmm0, %xmm22, %xmm2	 # w0, v0u_over_z, tmp446
 # mahjong.c:936:                 f32 z = 1.0f / inv_z;
	vdivss	%xmm1, %xmm20, %xmm8	 # inv_z, tmp485, z
 # mahjong.c:455:     return i - (i > x);
	xorl	%r13d, %r13d	 # tmp465
 # mahjong.c:729:     f32 v_over_z = (w0 * v0v_over_z + w1 * v1v_over_z + w2 * v2v_over_z) * recip_area;
	vmulss	%xmm0, %xmm23, %xmm0	 # w0, v0v_over_z, tmp454
 # mahjong.c:729:     f32 v_over_z = (w0 * v0v_over_z + w1 * v1v_over_z + w2 * v2v_over_z) * recip_area;
	vmulss	%xmm7, %xmm25, %xmm7	 # w1, v1v_over_z, tmp455
 # mahjong.c:728:     f32 u_over_z = (w0 * v0u_over_z + w1 * v1u_over_z + w2 * v2u_over_z) * recip_area;
	vaddss	%xmm9, %xmm2, %xmm2	 # tmp447, tmp446, tmp448
 # mahjong.c:728:     f32 u_over_z = (w0 * v0u_over_z + w1 * v1u_over_z + w2 * v2u_over_z) * recip_area;
	vmulss	%xmm6, %xmm26, %xmm9	 # w2, v2u_over_z, tmp449
 # mahjong.c:729:     f32 v_over_z = (w0 * v0v_over_z + w1 * v1v_over_z + w2 * v2v_over_z) * recip_area;
	vmulss	%xmm6, %xmm27, %xmm6	 # w2, v2v_over_z, tmp457
 # mahjong.c:729:     f32 v_over_z = (w0 * v0v_over_z + w1 * v1v_over_z + w2 * v2v_over_z) * recip_area;
	vaddss	%xmm7, %xmm0, %xmm0	 # tmp455, tmp454, tmp456
 # mahjong.c:728:     f32 u_over_z = (w0 * v0u_over_z + w1 * v1u_over_z + w2 * v2u_over_z) * recip_area;
	vaddss	%xmm9, %xmm2, %xmm2	 # tmp449, tmp448, tmp450
 # mahjong.c:733:     i32 int_u = (i32)fast_floor(u * (f32)tex_width);// & 1023;
	vcvtsi2ssl	20(%rsp), %xmm3, %xmm9	 # %sfp, tmp505, tmp512
 # mahjong.c:729:     f32 v_over_z = (w0 * v0v_over_z + w1 * v1v_over_z + w2 * v2v_over_z) * recip_area;
	vaddss	%xmm6, %xmm0, %xmm0	 # tmp457, tmp456, tmp458
 # mahjong.c:734:     i32 int_v = (i32)fast_floor(v * (f32)tex_height);// & 1023;
	vcvtsi2ssl	24(%rsp), %xmm3, %xmm6	 # %sfp, tmp505, tmp513
 # mahjong.c:728:     f32 u_over_z = (w0 * v0u_over_z + w1 * v1u_over_z + w2 * v2u_over_z) * recip_area;
	vmulss	%xmm16, %xmm2, %xmm2	 # recip_area, tmp450, u_over_z
 # mahjong.c:729:     f32 v_over_z = (w0 * v0v_over_z + w1 * v1v_over_z + w2 * v2v_over_z) * recip_area;
	vmulss	%xmm16, %xmm0, %xmm0	 # recip_area, tmp458, v_over_z
 # mahjong.c:730:     f32 u = (u_over_z * z);
	vmulss	%xmm8, %xmm2, %xmm2	 # z, u_over_z, u
 # mahjong.c:731:     f32 v = (v_over_z * z);
	vmulss	%xmm8, %xmm0, %xmm0	 # z, v_over_z, v
 # mahjong.c:733:     i32 int_u = (i32)fast_floor(u * (f32)tex_width);// & 1023;
	vmulss	%xmm9, %xmm2, %xmm2	 # tmp453, u, _269
 # mahjong.c:734:     i32 int_v = (i32)fast_floor(v * (f32)tex_height);// & 1023;
	vmulss	%xmm6, %xmm0, %xmm0	 # tmp461, v, _276
 # mahjong.c:454:     int i = (int)x;
	vcvttss2sil	%xmm2, %r14d	 # _269, i
	vcvttss2sil	%xmm0, %eax	 # _276, i
 # mahjong.c:455:     return i - (i > x);
	vcvtsi2ssl	%eax, %xmm3, %xmm6	 # i, tmp505, tmp514
 # mahjong.c:737:     u8 tex_pal_idx = texels[((tex_height-1)-int_v)*tex_width+int_u];
	notl	%eax	 # tmp468
 # mahjong.c:455:     return i - (i > x);
	vcomiss	%xmm0, %xmm6	 # _276, tmp464
	seta	%r13b	 #, tmp465
	vcvtsi2ssl	%r14d, %xmm3, %xmm0	 # i, tmp505, tmp515
 # mahjong.c:737:     u8 tex_pal_idx = texels[((tex_height-1)-int_v)*tex_width+int_u];
	addl	%eax, %r13d	 # tmp468, tmp469
	vmovd	%xmm29, %eax	 # tmp495, tmp495
	andl	%eax, %r13d	 # tmp495, tmp471
	movl	20(%rsp), %eax	 # %sfp, tex_width
	imull	%eax, %r13d	 # tex_width, tmp472
 # mahjong.c:455:     return i - (i > x);
	xorl	%eax, %eax	 # tmp474
	vcomiss	%xmm2, %xmm0	 # _269, tmp473
	seta	%al	 #, tmp474
 # mahjong.c:455:     return i - (i > x);
	subl	%eax, %r14d	 # tmp474, tmp477
 # mahjong.c:735:     int_u &= (tex_width-1);
	vmovd	%xmm28, %eax	 # tmp496, tmp496
	andl	%eax, %r14d	 # tmp496, int_u
 # mahjong.c:747:     return lit_pal_ptr[tex_pal_idx];// light_remap_table[16][WHITE];
	vmovq	%xmm21, %rax	 # texels, texels
 # mahjong.c:737:     u8 tex_pal_idx = texels[((tex_height-1)-int_v)*tex_width+int_u];
	addl	%r14d, %r13d	 # int_u, tmp480
 # mahjong.c:947:                     drew_pixel = 1;
	movl	$1, %r14d	 #, <retval>
 # mahjong.c:737:     u8 tex_pal_idx = texels[((tex_height-1)-int_v)*tex_width+int_u];
	movslq	%r13d, %r13	 # tmp480, tmp481
 # mahjong.c:747:     return lit_pal_ptr[tex_pal_idx];// light_remap_table[16][WHITE];
	movzbl	(%rax,%r13), %eax	 # *_291, *_291
 # mahjong.c:945:                     render_target[TILE_IDX(x-start_x,y-start_y)] = pal_idx; //*row = pal_idx;
	movzbl	(%r10,%rax), %r13d	 # *_294, *_294
	vmovq	%xmm30, %rax	 # tmp494, tmp494
	movb	%r13b, (%rax,%r11)	 # *_294, render_target[_78]
 # mahjong.c:946:                     zbuffer[TILE_IDX(x-start_x,y-start_y)] = inv_z;//*zbuf_row = inv_z;
	vmovss	%xmm1, (%r12)	 # inv_z, *_81
.L426:
 # mahjong.c:929:         for (i32 x = minx; x < maxx; x++) {
	incl	%edx	 # ivtmp.923
 # mahjong.c:953:             cx01 -= dy01;
	subl	%ebx, %ecx	 # dy01, cx01
 # mahjong.c:954:             cx12 -= dy12;
	subl	%esi, %r8d	 # dy12, cx12
 # mahjong.c:955:             cx20 -= dy20;
	subl	%edi, %r9d	 # dy20, cx20
 # mahjong.c:929:         for (i32 x = minx; x < maxx; x++) {
	cmpl	%ebp, %edx	 # _388, ivtmp.923
	jne	.L428	 #,
	movl	52(%rsp), %r12d	 # %sfp, cy01
	movl	56(%rsp), %r10d	 # %sfp, ivtmp.945
.L430:
 # mahjong.c:961:         cy01 += dx01;
	movl	64(%rsp), %eax	 # %sfp, dx01
 # mahjong.c:962:         cy12 += dx12;
	movl	68(%rsp), %edx	 # %sfp, dx12
 # mahjong.c:963:         cy20 += dx20;
	movl	72(%rsp), %r15d	 # %sfp, dx20
 # mahjong.c:914:     for (i32 y = miny; y < maxy; y++) {
	incl	%r10d	 # ivtmp.945
 # mahjong.c:962:         cy12 += dx12;
	addl	%edx, 32(%rsp)	 # dx12, %sfp
 # mahjong.c:963:         cy20 += dx20;
	addl	%r15d, 36(%rsp)	 # dx20, %sfp
 # mahjong.c:964:         ey01 += dx01;
	addl	%eax, 40(%rsp)	 # dx01, %sfp
 # mahjong.c:965:         ey12 += dx12;
	addl	%edx, 44(%rsp)	 # dx12, %sfp
 # mahjong.c:966:         ey20 += dx20;
	addl	%r15d, 48(%rsp)	 # dx20, %sfp
 # mahjong.c:961:         cy01 += dx01;
	addl	%eax, %r12d	 # dx01, cy01
 # mahjong.c:914:     for (i32 y = miny; y < maxy; y++) {
	cmpl	%r10d, 76(%rsp)	 # ivtmp.945, %sfp
	jne	.L425	 #,
	movl	%r14d, %r13d	 # <retval>, <retval>
.L390:
 # mahjong.c:969: }
	vmovups	80(%rsp), %xmm6	 #,
	vmovups	96(%rsp), %xmm7	 #,
	vmovups	112(%rsp), %xmm8	 #,
	movl	%r13d, %eax	 # <retval>,
	vmovups	128(%rsp), %xmm9	 #,
	addq	$152, %rsp	 #,
	popq	%rbx	 #
	popq	%rsi	 #
	popq	%rdi	 #
	popq	%rbp	 #
	popq	%r12	 #
	popq	%r13	 #
	popq	%r14	 #
	popq	%r15	 #
	ret	
.L476:
 # mahjong.c:864:         if(duv_per_pix > 6.0f) {
	vcomiss	.LC27(%rip), %xmm0	 #, duv_per_pix
	jbe	.L477	 #,
 # mahjong.c:865:             texels = tex->mip_2_texels;
	vmovq	24(%rdi), %xmm21	 # tex_164(D)->mip_2_texels, texels
 # mahjong.c:866:             tex_width >>= 1;
	sarl	$2, 20(%rsp)	 #, %sfp
 # mahjong.c:867:             tex_height >>= 1;
	sarl	$2, 24(%rsp)	 #, %sfp
	jmp	.L415	 #
.L475:
 # mahjong.c:788:     u8 quantized_brightness = (u8)(diffuse * (NUM_SHADES-1));
	vmulss	.LC26(%rip), %xmm0, %xmm0	 #, avg_c, tmp342
 # mahjong.c:788:     u8 quantized_brightness = (u8)(diffuse * (NUM_SHADES-1));
	vcvttss2sil	%xmm0, %eax	 # tmp342, tmp346
 # mahjong.c:789:     u8* lit_pal_ptr = light_remap_table[quantized_brightness];
	movzbl	%al, %eax	 # tmp346, tmp347
	leaq	(%rax,%rax,2), %rdx	 #, tmp350
	leaq	light_remap_table(%rip), %rax	 #, tmp352
	leaq	(%rax,%rdx,2), %rax	 #, _342
	vmovq	%rax, %xmm31	 # _342, _342
	jmp	.L391	 #
.L435:
 # mahjong.c:881:     i32 c01 = e01;
	movl	%r15d, %r8d	 # e01, c01
	jmp	.L419	 #
.L437:
 # mahjong.c:883:     i32 c20 = e20;
	movl	%eax, %r10d	 # e20, c20
	jmp	.L423	 #
.L436:
 # mahjong.c:882:     i32 c12 = e12;
	movl	%edi, %r11d	 # e12, c12
	jmp	.L421	 #
.L472:
	leaq	light_remap_table(%rip), %rax	 #, _342
	vmovss	.LC17(%rip), %xmm20	 #, tmp485
	vmovq	%rax, %xmm31	 # _342, _342
	jmp	.L391	 #
.L477:
 # mahjong.c:861:         texels = tex->mip_texels;
	vmovq	16(%rdi), %xmm21	 # tex_164(D)->mip_texels, texels
 # mahjong.c:862:         tex_width >>= MIP_SHIFT;
	sarl	20(%rsp)	 # %sfp
 # mahjong.c:863:         tex_height >>= MIP_SHIFT; 
	sarl	24(%rsp)	 # %sfp
	jmp	.L415	 #
.L438:
 # mahjong.c:793:     int drew_pixel = 0;
	xorl	%r13d, %r13d	 # <retval>
 # mahjong.c:968:     return drew_pixel;
	jmp	.L390	 #
	.seh_endproc
	.p2align 4
	.globl	trivial_triangle
	.def	trivial_triangle;	.scl	2;	.type	32;	.endef
	.seh_proc	trivial_triangle
trivial_triangle:
	pushq	%r15	 #
	.seh_pushreg	%r15
	pushq	%r14	 #
	.seh_pushreg	%r14
	pushq	%r13	 #
	.seh_pushreg	%r13
	pushq	%r12	 #
	.seh_pushreg	%r12
	pushq	%rbp	 #
	.seh_pushreg	%rbp
	pushq	%rdi	 #
	.seh_pushreg	%rdi
	pushq	%rsi	 #
	.seh_pushreg	%rsi
	pushq	%rbx	 #
	.seh_pushreg	%rbx
	subq	$136, %rsp	 #,
	.seh_stackalloc	136
	vmovups	%xmm6, 48(%rsp)	 #,
	.seh_savexmm	%xmm6, 48
	vmovups	%xmm7, 64(%rsp)	 #,
	.seh_savexmm	%xmm7, 64
	vmovups	%xmm8, 80(%rsp)	 #,
	.seh_savexmm	%xmm8, 80
	vmovups	%xmm9, 96(%rsp)	 #,
	.seh_savexmm	%xmm9, 96
	vmovups	%xmm10, 112(%rsp)	 #,
	.seh_savexmm	%xmm10, 112
	.seh_endprologue
 # mahjong.c:999:     f32 diffuse = CLAMP(avg_c, 0.0f, 1.0f);
	vxorps	%xmm4, %xmm4, %xmm4	 # tmp336
 # mahjong.c:995:     f32 avg_c = (c0+c1+c2)/3.0f;
	vmovss	40(%r8), %xmm0	 # tri_attributes_58(D)->c1, tri_attributes_58(D)->c1
	vaddss	36(%r8), %xmm0, %xmm0	 # tri_attributes_58(D)->c0, tri_attributes_58(D)->c1, tmp332
 # mahjong.c:982:     f32 iz0 = tri_attributes->inv_z1;
	vmovss	116(%r8), %xmm16	 # tri_attributes_58(D)->inv_z1, iz0
 # mahjong.c:978:     i32 start_y, i32 end_y) {
	movq	%rdx, 216(%rsp)	 # tmp502, zbuffer
 # mahjong.c:995:     f32 avg_c = (c0+c1+c2)/3.0f;
	vaddss	44(%r8), %xmm0, %xmm0	 # tri_attributes_58(D)->c2, tmp332, tmp334
 # mahjong.c:983:     f32 iz1 = tri_attributes->inv_z0;
	vmovss	112(%r8), %xmm17	 # tri_attributes_58(D)->inv_z0, iz1
 # mahjong.c:984:     f32 iz2 = tri_attributes->inv_z2;
	vmovss	120(%r8), %xmm18	 # tri_attributes_58(D)->inv_z2, iz2
 # mahjong.c:995:     f32 avg_c = (c0+c1+c2)/3.0f;
	vdivss	.LC25(%rip), %xmm0, %xmm0	 #, tmp334, avg_c
 # mahjong.c:985:     vert3f v0 = tri_attributes->proj_v1;
	vmovss	12(%r8), %xmm7	 # tri_attributes_58(D)->proj_v1.x, v0$x
	vmovss	16(%r8), %xmm6	 # tri_attributes_58(D)->proj_v1.y, v0$y
 # mahjong.c:986:     vert3f v1 = tri_attributes->proj_v0;
	vmovss	(%r8), %xmm5	 # tri_attributes_58(D)->proj_v0.x, v1$x
	vmovss	4(%r8), %xmm3	 # tri_attributes_58(D)->proj_v0.y, v1$y
 # mahjong.c:987:     vert3f v2 = tri_attributes->proj_v2;
	vmovss	24(%r8), %xmm2	 # tri_attributes_58(D)->proj_v2.x, v2$x
	vmovss	28(%r8), %xmm1	 # tri_attributes_58(D)->proj_v2.y, v2$y
 # mahjong.c:989:     vert2f uv0 = tri_attributes->uv1;
	vmovss	56(%r8), %xmm28	 # tri_attributes_58(D)->uv1.x, uv0$x
	vmovss	60(%r8), %xmm19	 # tri_attributes_58(D)->uv1.y, uv0$y
 # mahjong.c:990:     vert2f uv1 = tri_attributes->uv0;
	vmovss	48(%r8), %xmm27	 # tri_attributes_58(D)->uv0.x, uv1$x
	vmovss	52(%r8), %xmm20	 # tri_attributes_58(D)->uv0.y, uv1$y
 # mahjong.c:991:     vert2f uv2 = tri_attributes->uv2;
	vmovss	64(%r8), %xmm26	 # tri_attributes_58(D)->uv2.x, uv2$x
	vmovss	68(%r8), %xmm21	 # tri_attributes_58(D)->uv2.y, uv2$y
 # mahjong.c:999:     f32 diffuse = CLAMP(avg_c, 0.0f, 1.0f);
	vcomiss	%xmm4, %xmm0	 # tmp336, avg_c
	jbe	.L506	 #,
 # mahjong.c:999:     f32 diffuse = CLAMP(avg_c, 0.0f, 1.0f);
	vmovss	.LC17(%rip), %xmm22	 #, tmp492
	leaq	144+light_remap_table(%rip), %r12	 #, _317
	vcomiss	%xmm0, %xmm22	 # avg_c, tmp492
	ja	.L508	 #,
.L479:
 # mahjong.c:1005:     const i32 x0 = (i32)(v0.x * 16.0f);
	vmovss	.LC24(%rip), %xmm0	 #, tmp350
 # mahjong.c:1023:     int tex_width = tex->width;
	movl	32(%r9), %esi	 # tex_87(D)->width, tex_width
 # mahjong.c:1024:     int tex_height = tex->height;
	movl	36(%r9), %edi	 # tex_87(D)->height, tex_height
	vxorps	%xmm4, %xmm4, %xmm4	 # tmp505
 # mahjong.c:1025:     u8* texels = tex->texels;
	vmovq	8(%r9), %xmm23	 # tex_87(D)->texels, texels
 # mahjong.c:1015:     f32 v0v_over_z = uv0.y * iz0;
	vmulss	%xmm19, %xmm16, %xmm19	 # uv0$y, iz0, v0v_over_z
 # mahjong.c:1018:     f32 v1v_over_z = uv1.y * iz1;
	vmulss	%xmm20, %xmm17, %xmm20	 # uv1$y, iz1, v1v_over_z
 # mahjong.c:1021:     f32 v2v_over_z = uv2.y* iz2;
	vmulss	%xmm21, %xmm18, %xmm21	 # uv2$y, iz2, v2v_over_z
 # mahjong.c:1023:     int tex_width = tex->width;
	movl	%esi, (%rsp)	 # tex_width, %sfp
 # mahjong.c:1024:     int tex_height = tex->height;
	movl	%edi, 28(%rsp)	 # tex_height, %sfp
 # mahjong.c:1005:     const i32 x0 = (i32)(v0.x * 16.0f);
	vmulss	%xmm0, %xmm7, %xmm7	 # tmp350, v0$x, tmp349
 # mahjong.c:1006:     const i32 y0 = (i32)(v0.y * 16.0f);
	vmulss	%xmm0, %xmm6, %xmm6	 # tmp350, v0$y, tmp351
 # mahjong.c:1007:     const i32 x1 = (i32)(v1.x * 16.0f);
	vmulss	%xmm0, %xmm5, %xmm5	 # tmp350, v1$x, tmp353
 # mahjong.c:1008:     const i32 y1 = (i32)(v1.y * 16.0f);
	vmulss	%xmm0, %xmm3, %xmm3	 # tmp350, v1$y, tmp355
 # mahjong.c:1009:     const i32 x2 = (i32)(v2.x * 16.0f);
	vmulss	%xmm0, %xmm2, %xmm2	 # tmp350, v2$x, tmp357
 # mahjong.c:1010:     const i32 y2 = (i32)(v2.y * 16.0f);
	vmulss	%xmm0, %xmm1, %xmm1	 # tmp350, v2$y, tmp359
 # mahjong.c:1005:     const i32 x0 = (i32)(v0.x * 16.0f);
	vcvttss2sil	%xmm7, %ecx	 # tmp349, x0
 # mahjong.c:1006:     const i32 y0 = (i32)(v0.y * 16.0f);
	vcvttss2sil	%xmm6, %r13d	 # tmp351, y0
 # mahjong.c:1039:     i32 dx01 = x0 - x1; // 28.4
	movl	%ecx, %r11d	 # x0, dx01
 # mahjong.c:1040:     i32 dy01 = y0 - y1;
	movl	%r13d, %esi	 # y0, dy01
 # mahjong.c:1007:     const i32 x1 = (i32)(v1.x * 16.0f);
	vcvttss2sil	%xmm5, %edx	 # tmp353, x1
 # mahjong.c:1008:     const i32 y1 = (i32)(v1.y * 16.0f);
	vcvttss2sil	%xmm3, %r15d	 # tmp355, y1
 # mahjong.c:1039:     i32 dx01 = x0 - x1; // 28.4
	subl	%edx, %r11d	 # x1, dx01
 # mahjong.c:1040:     i32 dy01 = y0 - y1;
	subl	%r15d, %esi	 # y1, dy01
 # mahjong.c:1009:     const i32 x2 = (i32)(v2.x * 16.0f);
	vcvttss2sil	%xmm2, %eax	 # tmp357, x2
 # mahjong.c:1010:     const i32 y2 = (i32)(v2.y * 16.0f);
	vcvttss2sil	%xmm1, %ebx	 # tmp359, y2
 # mahjong.c:1043:     i32 dx20 = x2 - x0;
	movl	%eax, %r9d	 # x2, dx20
 # mahjong.c:1044:     i32 dy20 = y2 - y0;
	movl	%ebx, %edi	 # y2, dy20
 # mahjong.c:1043:     i32 dx20 = x2 - x0;
	subl	%ecx, %r9d	 # x0, dx20
 # mahjong.c:1044:     i32 dy20 = y2 - y0;
	subl	%r13d, %edi	 # y0, dy20
 # mahjong.c:1049:     i32 area = (dx01 * dy20 - dy01 * dx20); // 24.8
	movl	%r11d, %r8d	 # dx01, tmp361
 # mahjong.c:1049:     i32 area = (dx01 * dy20 - dy01 * dx20); // 24.8
	movl	%esi, %r10d	 # dy01, tmp362
	imull	%r9d, %r10d	 # dx20, tmp362
 # mahjong.c:1041:     i32 dx12 = x1 - x2;
	movl	%edx, %r14d	 # x1, dx12
 # mahjong.c:1042:     i32 dy12 = y1 - y2;
	movl	%r15d, %ebp	 # y1, dy12
 # mahjong.c:1062:     i32 e01 = dy01 * x0 - dx01 * y0;
	imull	%r11d, %r13d	 # dx01, tmp367
 # mahjong.c:1041:     i32 dx12 = x1 - x2;
	subl	%eax, %r14d	 # x2, dx12
 # mahjong.c:1042:     i32 dy12 = y1 - y2;
	subl	%ebx, %ebp	 # y2, dy12
 # mahjong.c:1062:     i32 e01 = dy01 * x0 - dx01 * y0;
	imull	%esi, %ecx	 # dy01, tmp366
 # mahjong.c:1049:     i32 area = (dx01 * dy20 - dy01 * dx20); // 24.8
	imull	%edi, %r8d	 # dy20, tmp361
 # mahjong.c:1063:     i32 e12 = dy12 * x1 - dx12 * y1;
	imull	%ebp, %edx	 # dy12, tmp372
 # mahjong.c:1062:     i32 e01 = dy01 * x0 - dx01 * y0;
	subl	%r13d, %ecx	 # tmp367, e01
 # mahjong.c:1064:     i32 e20 = dy20 * x2 - dx20 * y2;
	imull	%r9d, %ebx	 # dx20, tmp379
 # mahjong.c:1069:     i32 ey01 = e01 + dx01 * startY - dy01 * startX;
	movl	%r11d, %r13d	 # dx01, tmp369
 # mahjong.c:1049:     i32 area = (dx01 * dy20 - dy01 * dx20); // 24.8
	subl	%r10d, %r8d	 # tmp362, area
 # mahjong.c:1064:     i32 e20 = dy20 * x2 - dx20 * y2;
	imull	%edi, %eax	 # dy20, tmp378
 # mahjong.c:1067:     i32 startX = minx << 4;
	movl	$4, %r10d	 #, tmp587
 # mahjong.c:1052:     f32 recip_area = 1.0f / (f32)area;
	vcvtsi2ssl	%r8d, %xmm4, %xmm5	 # area, tmp505, tmp506
 # mahjong.c:1067:     i32 startX = minx << 4;
	shlx	%r10d, 240(%rsp), %r8d	 # tmp587, start_x, startX
 # mahjong.c:1068:     i32 startY = miny << 4;
	shlx	%r10d, 256(%rsp), %r10d	 # tmp588, start_y, startY
 # mahjong.c:1069:     i32 ey01 = e01 + dx01 * startY - dy01 * startX;
	imull	%r10d, %r13d	 # startY, tmp369
 # mahjong.c:1052:     f32 recip_area = 1.0f / (f32)area;
	vdivss	%xmm5, %xmm22, %xmm5	 # tmp364, tmp492, recip_area
 # mahjong.c:1064:     i32 e20 = dy20 * x2 - dx20 * y2;
	subl	%ebx, %eax	 # tmp379, e20
 # mahjong.c:1081:     for (i32 y = miny; y < maxy; y++) {
	movl	264(%rsp), %ebx	 # end_y, tmp598
 # mahjong.c:1069:     i32 ey01 = e01 + dx01 * startY - dy01 * startX;
	addl	%ecx, %r13d	 # e01, tmp370
 # mahjong.c:1069:     i32 ey01 = e01 + dx01 * startY - dy01 * startX;
	movl	%esi, %ecx	 # dy01, tmp371
	imull	%r8d, %ecx	 # startX, tmp371
 # mahjong.c:1073:     dy01 <<= 4;
	sall	$4, %esi	 #, dy01
 # mahjong.c:1069:     i32 ey01 = e01 + dx01 * startY - dy01 * startX;
	subl	%ecx, %r13d	 # tmp371, ey01
 # mahjong.c:1063:     i32 e12 = dy12 * x1 - dx12 * y1;
	movl	%r15d, %ecx	 # y1, y1
	imull	%r14d, %ecx	 # dx12, y1
 # mahjong.c:1063:     i32 e12 = dy12 * x1 - dx12 * y1;
	subl	%ecx, %edx	 # tmp373, e12
 # mahjong.c:1070:     i32 ey12 = e12 + dx12 * startY - dy12 * startX;
	movl	%r14d, %ecx	 # dx12, tmp375
	imull	%r10d, %ecx	 # startY, tmp375
 # mahjong.c:1071:     i32 ey20 = e20 + dx20 * startY - dy20 * startX;
	imull	%r9d, %r10d	 # dx20, tmp381
 # mahjong.c:1070:     i32 ey12 = e12 + dx12 * startY - dy12 * startX;
	addl	%ecx, %edx	 # tmp375, tmp376
 # mahjong.c:1070:     i32 ey12 = e12 + dx12 * startY - dy12 * startX;
	movl	%ebp, %ecx	 # dy12, tmp377
	imull	%r8d, %ecx	 # startX, tmp377
 # mahjong.c:1071:     i32 ey20 = e20 + dx20 * startY - dy20 * startX;
	addl	%r10d, %eax	 # tmp381, tmp382
 # mahjong.c:1071:     i32 ey20 = e20 + dx20 * startY - dy20 * startX;
	imull	%edi, %r8d	 # dy20, tmp383
 # mahjong.c:1074:     dy12 <<= 4;
	sall	$4, %ebp	 #, dy12
 # mahjong.c:1071:     i32 ey20 = e20 + dx20 * startY - dy20 * startX;
	subl	%r8d, %eax	 # tmp383, tmp382
 # mahjong.c:1070:     i32 ey12 = e12 + dx12 * startY - dy12 * startX;
	subl	%ecx, %edx	 # tmp377, ey12
 # mahjong.c:1075:     dy20 <<= 4;
	sall	$4, %edi	 #, dy20
 # mahjong.c:1071:     i32 ey20 = e20 + dx20 * startY - dy20 * startX;
	movl	%eax, 8(%rsp)	 # tmp382, %sfp
 # mahjong.c:1076:     dx01 <<= 4;
	sall	$4, %r11d	 #, dx01
 # mahjong.c:1077:     dx12 <<= 4;
	sall	$4, %r14d	 #, dx12
 # mahjong.c:1076:     dx01 <<= 4;
	movl	%r11d, 16(%rsp)	 # dx01, %sfp
 # mahjong.c:1078:     dx20 <<= 4;
	sall	$4, %r9d	 #, dx20
 # mahjong.c:1077:     dx12 <<= 4;
	movl	%r14d, 20(%rsp)	 # dx12, %sfp
 # mahjong.c:1078:     dx20 <<= 4;
	movl	%r9d, 24(%rsp)	 # dx20, %sfp
 # mahjong.c:1081:     for (i32 y = miny; y < maxy; y++) {
	cmpl	%ebx, 256(%rsp)	 # tmp598, start_y
	jge	.L497	 #,
	cmpl	$1, (%rsp)	 #, %sfp
	jne	.L509	 #,
	movl	256(%rsp), %eax	 # start_y, tmp623
	movslq	240(%rsp), %r8	 # start_x, _281
	movl	248(%rsp), %r15d	 # end_x, _263
	movl	%ebx, %ecx	 # tmp598, tmp455
	subl	240(%rsp), %r15d	 # start_x, _263
	movq	216(%rsp), %rbx	 # zbuffer, tmp625
	subl	256(%rsp), %ecx	 # start_y, tmp455
 # mahjong.c:1012:     int drew_pixel = 0;
	xorl	%r11d, %r11d	 # <retval>
 # mahjong.c:736:     int_v &= (tex_height-1);
	vmovq	%r12, %xmm7	 # _317, _317
	movl	%edx, 12(%rsp)	 # ey12, %sfp
	leal	(%rax,%rax,4), %r14d	 #, tmp447
	sall	$9, %r14d	 #, tmp448
	movslq	%r14d, %r14	 # tmp448, tmp449
	addq	%r8, %r14	 # _281, _280
	leaq	(%r15,%r14), %rax	 #, tmp451
	leaq	(%rbx,%rax,4), %rbx	 #, ivtmp.983
	leaq	render_target(%rip), %rax	 #, tmp453
	addq	%rax, %r14	 # tmp453, ivtmp.984
	movslq	256(%rsp), %rax	 # start_y, start_y
	movq	%r14, (%rsp)	 # ivtmp.984, %sfp
	addq	%rax, %rcx	 # start_y, tmp457
	leaq	(%rcx,%rcx,4), %rax	 #, tmp460
	movq	216(%rsp), %rcx	 # zbuffer, tmp627
	salq	$9, %rax	 #, tmp461
	addq	%r8, %rax	 # _281, tmp462
	addq	%r15, %rax	 # _263, tmp463
	negq	%r15	 # tmp466
	leaq	(%rcx,%rax,4), %rax	 #, _234
	movq	%rax, 32(%rsp)	 # _234, %sfp
	leaq	0(,%r15,4), %rax	 #, tmp467
	movq	%rax, 40(%rsp)	 # tmp467, %sfp
	movl	28(%rsp), %eax	 # %sfp, tex_height
	leal	-1(%rax), %r15d	 #, _351
	vmovd	%r15d, %xmm6	 # _351, _351
	movl	%r13d, %r15d	 # ey01, ey01
	vmovq	%xmm23, %r13	 # texels, texels
	.p2align 4
	.p2align 3
.L493:
 # mahjong.c:1090:         f32 *zbuf_row = &zbuffer[y*RENDER_WIDTH + minx];
	movq	40(%rsp), %rax	 # %sfp, tmp467
 # mahjong.c:1093:         for (i32 x = minx; x < maxx; x++) {
	movl	248(%rsp), %ecx	 # end_x, tmp632
 # mahjong.c:1087:         u8 *row = &render_target[y*RENDER_WIDTH + minx];
	movq	(%rsp), %rdx	 # %sfp, row
 # mahjong.c:1090:         f32 *zbuf_row = &zbuffer[y*RENDER_WIDTH + minx];
	addq	%rbx, %rax	 # ivtmp.983, zbuf_row
 # mahjong.c:1093:         for (i32 x = minx; x < maxx; x++) {
	cmpl	%ecx, 240(%rsp)	 # tmp632, start_x
	jge	.L489	 #,
 # mahjong.c:1084:         i32 ex20 = ey20;
	movl	8(%rsp), %r10d	 # %sfp, ex20
 # mahjong.c:1083:         i32 ex12 = ey12;
	movl	12(%rsp), %r9d	 # %sfp, ex12
 # mahjong.c:1082:         i32 ex01 = ey01;
	movl	%r15d, %r8d	 # ey01, ex01
	vmovq	%xmm7, %r12	 # _317, _317
	vmovd	%xmm6, %r14d	 # _351, _351
 # mahjong.c:734:     i32 int_v = (i32)fast_floor(v * (f32)tex_height);// & 1023;
	vcvtsi2ssl	28(%rsp), %xmm4, %xmm25	 # %sfp, tmp505, tmp514
	.p2align 4
	.p2align 3
.L492:
 # mahjong.c:1096:             f32 w0 = (f32)ex12;
	vcvtsi2ssl	%r9d, %xmm4, %xmm0	 # ex12, tmp505, tmp515
 # mahjong.c:1097:             f32 w1 = (f32)ex20;
	vcvtsi2ssl	%r10d, %xmm4, %xmm3	 # ex20, tmp505, tmp516
 # mahjong.c:1099:             f32 inv_z = (w0 * iz0 + w1 * iz1 +  w2 * iz2) * recip_area;
	vmulss	%xmm0, %xmm16, %xmm27	 # w0, iz0, tmp469
 # mahjong.c:1099:             f32 inv_z = (w0 * iz0 + w1 * iz1 +  w2 * iz2) * recip_area;
	vmulss	%xmm3, %xmm17, %xmm1	 # w1, iz1, tmp468
 # mahjong.c:1098:             f32 w2 = (f32)ex01;
	vcvtsi2ssl	%r8d, %xmm4, %xmm2	 # ex01, tmp505, tmp517
 # mahjong.c:1099:             f32 inv_z = (w0 * iz0 + w1 * iz1 +  w2 * iz2) * recip_area;
	vaddss	%xmm27, %xmm1, %xmm1	 # tmp469, tmp468, tmp470
 # mahjong.c:1099:             f32 inv_z = (w0 * iz0 + w1 * iz1 +  w2 * iz2) * recip_area;
	vmulss	%xmm2, %xmm18, %xmm27	 # w2, iz2, tmp471
 # mahjong.c:1099:             f32 inv_z = (w0 * iz0 + w1 * iz1 +  w2 * iz2) * recip_area;
	vaddss	%xmm27, %xmm1, %xmm1	 # tmp471, tmp470, tmp472
 # mahjong.c:1099:             f32 inv_z = (w0 * iz0 + w1 * iz1 +  w2 * iz2) * recip_area;
	vmulss	%xmm5, %xmm1, %xmm1	 # recip_area, tmp472, inv_z
 # mahjong.c:1107:             if(inv_z >= zbuf_val) {
	vcomiss	(%rax), %xmm1	 # MEM[(f32 *)zbuf_row_345], inv_z
	jb	.L490	 #,
 # mahjong.c:729:     f32 v_over_z = (w0 * v0v_over_z + w1 * v1v_over_z + w2 * v2v_over_z) * recip_area;
	vmulss	%xmm0, %xmm19, %xmm0	 # w0, v0v_over_z, tmp473
 # mahjong.c:729:     f32 v_over_z = (w0 * v0v_over_z + w1 * v1v_over_z + w2 * v2v_over_z) * recip_area;
	vmulss	%xmm3, %xmm20, %xmm3	 # w1, v1v_over_z, tmp474
 # mahjong.c:455:     return i - (i > x);
	xorl	%r11d, %r11d	 # tmp483
 # mahjong.c:729:     f32 v_over_z = (w0 * v0v_over_z + w1 * v1v_over_z + w2 * v2v_over_z) * recip_area;
	vmulss	%xmm2, %xmm21, %xmm2	 # w2, v2v_over_z, tmp476
 # mahjong.c:729:     f32 v_over_z = (w0 * v0v_over_z + w1 * v1v_over_z + w2 * v2v_over_z) * recip_area;
	vaddss	%xmm3, %xmm0, %xmm0	 # tmp474, tmp473, tmp475
 # mahjong.c:729:     f32 v_over_z = (w0 * v0v_over_z + w1 * v1v_over_z + w2 * v2v_over_z) * recip_area;
	vaddss	%xmm2, %xmm0, %xmm0	 # tmp476, tmp475, tmp477
 # mahjong.c:1100:             f32 z = 1.0f / inv_z;
	vdivss	%xmm1, %xmm22, %xmm2	 # inv_z, tmp492, z
 # mahjong.c:729:     f32 v_over_z = (w0 * v0v_over_z + w1 * v1v_over_z + w2 * v2v_over_z) * recip_area;
	vmulss	%xmm5, %xmm0, %xmm0	 # recip_area, tmp477, v_over_z
 # mahjong.c:731:     f32 v = (v_over_z * z);
	vmulss	%xmm2, %xmm0, %xmm0	 # z, v_over_z, v
 # mahjong.c:734:     i32 int_v = (i32)fast_floor(v * (f32)tex_height);// & 1023;
	vmulss	%xmm25, %xmm0, %xmm0	 # _353, v, _292
 # mahjong.c:454:     int i = (int)x;
	vcvttss2sil	%xmm0, %ecx	 # _292, i
 # mahjong.c:455:     return i - (i > x);
	vcvtsi2ssl	%ecx, %xmm4, %xmm2	 # i, tmp505, tmp518
 # mahjong.c:737:     u8 tex_pal_idx = texels[((tex_height-1)-int_v)*tex_width+int_u];
	notl	%ecx	 # tmp485
 # mahjong.c:455:     return i - (i > x);
	vcomiss	%xmm0, %xmm2	 # _292, tmp482
	seta	%r11b	 #, tmp483
 # mahjong.c:737:     u8 tex_pal_idx = texels[((tex_height-1)-int_v)*tex_width+int_u];
	addl	%ecx, %r11d	 # tmp485, tmp486
	andl	%r14d, %r11d	 # _351, tmp487
	movslq	%r11d, %r11	 # tmp487, tmp488
 # mahjong.c:747:     return lit_pal_ptr[tex_pal_idx];// light_remap_table[16][WHITE];
	movzbl	0(%r13,%r11), %r11d	 # *_276, *_276
 # mahjong.c:1108:                 *row = pal_idx;
	movzbl	(%r12,%r11), %r11d	 # *_273, *_273
	movb	%r11b, (%rdx)	 # *_273, MEM[(u8 *)row_346]
 # mahjong.c:1109:                 *zbuf_row = inv_z;
	vmovss	%xmm1, (%rax)	 # inv_z, MEM[(f32 *)zbuf_row_345]
 # mahjong.c:1110:                 drew_pixel = 1;
	movl	$1, %r11d	 #, <retval>
.L490:
 # mahjong.c:1112:             zbuf_row++;
	addq	$4, %rax	 #, zbuf_row
 # mahjong.c:1113:             row++;
	incq	%rdx	 # row
 # mahjong.c:1115:             ex01 -= dy01;
	subl	%esi, %r8d	 # dy01, ex01
 # mahjong.c:1116:             ex12 -= dy12;
	subl	%ebp, %r9d	 # dy12, ex12
 # mahjong.c:1117:             ex20 -= dy20;
	subl	%edi, %r10d	 # dy20, ex20
 # mahjong.c:1093:         for (i32 x = minx; x < maxx; x++) {
	cmpq	%rbx, %rax	 # ivtmp.983, zbuf_row
	jne	.L492	 #,
.L489:
 # mahjong.c:1123:         ey01 += dx01;
	movl	16(%rsp), %eax	 # %sfp, dx01
 # mahjong.c:1124:         ey12 += dx12;
	movl	20(%rsp), %edx	 # %sfp, dx12
 # mahjong.c:1081:     for (i32 y = miny; y < maxy; y++) {
	addq	$10240, %rbx	 #, ivtmp.983
	addq	$2560, (%rsp)	 #, %sfp
 # mahjong.c:1124:         ey12 += dx12;
	addl	%edx, 12(%rsp)	 # dx12, %sfp
 # mahjong.c:1125:         ey20 += dx20;
	movl	24(%rsp), %edx	 # %sfp, dx20
	addl	%edx, 8(%rsp)	 # dx20, %sfp
 # mahjong.c:1123:         ey01 += dx01;
	addl	%eax, %r15d	 # dx01, ey01
 # mahjong.c:1081:     for (i32 y = miny; y < maxy; y++) {
	cmpq	%rbx, 32(%rsp)	 # ivtmp.983, %sfp
	jne	.L493	 #,
.L478:
 # mahjong.c:1128: }
	vmovups	48(%rsp), %xmm6	 #,
	vmovups	64(%rsp), %xmm7	 #,
	vmovups	80(%rsp), %xmm8	 #,
	movl	%r11d, %eax	 # <retval>,
	vmovups	96(%rsp), %xmm9	 #,
	vmovups	112(%rsp), %xmm10	 #,
	addq	$136, %rsp	 #,
	popq	%rbx	 #
	popq	%rsi	 #
	popq	%rdi	 #
	popq	%rbp	 #
	popq	%r12	 #
	popq	%r13	 #
	popq	%r14	 #
	popq	%r15	 #
	ret	
.L508:
 # mahjong.c:1000:     u8 quantized_brightness = (u8)(diffuse * (NUM_SHADES-1));
	vmulss	.LC26(%rip), %xmm0, %xmm0	 #, avg_c, tmp338
 # mahjong.c:1000:     u8 quantized_brightness = (u8)(diffuse * (NUM_SHADES-1));
	vcvttss2sil	%xmm0, %eax	 # tmp338, tmp342
 # mahjong.c:1001:     u8* lit_pal_ptr = light_remap_table[quantized_brightness];
	movzbl	%al, %eax	 # tmp342, tmp343
	leaq	(%rax,%rax,2), %rdx	 #, tmp346
	leaq	light_remap_table(%rip), %rax	 #, tmp348
	leaq	(%rax,%rdx,2), %r12	 #, _317
	jmp	.L479	 #
.L506:
	vmovss	.LC17(%rip), %xmm22	 #, tmp492
	leaq	light_remap_table(%rip), %r12	 #, _317
	jmp	.L479	 #
.L509:
	movl	256(%rsp), %eax	 # start_y, tmp600
	movslq	240(%rsp), %r9	 # start_x, _189
	movl	248(%rsp), %r10d	 # end_x, _50
 # mahjong.c:736:     int_v &= (tex_height-1);
	vmovq	%r12, %xmm10	 # _317, _317
	subl	240(%rsp), %r10d	 # start_x, _50
	movq	216(%rsp), %rbx	 # zbuffer, tmp602
	movl	8(%rsp), %r12d	 # %sfp, ey20
 # mahjong.c:1014:     f32 v0u_over_z = uv0.x * iz0;
	vmulss	%xmm28, %xmm16, %xmm28	 # uv0$x, iz0, v0u_over_z
 # mahjong.c:1017:     f32 v1u_over_z = uv1.x * iz1;
	vmulss	%xmm27, %xmm17, %xmm27	 # uv1$x, iz1, v1u_over_z
 # mahjong.c:1020:     f32 v2u_over_z = uv2.x * iz2;
	vmulss	%xmm26, %xmm18, %xmm26	 # uv2$x, iz2, v2u_over_z
 # mahjong.c:1012:     int drew_pixel = 0;
	xorl	%r11d, %r11d	 # <retval>
 # mahjong.c:736:     int_v &= (tex_height-1);
	movl	%r13d, 12(%rsp)	 # ey01, %sfp
	leal	(%rax,%rax,4), %eax	 #, tmp386
	sall	$9, %eax	 #, tmp387
	cltq
	addq	%r9, %rax	 # _189, _141
	leaq	(%r10,%rax), %rcx	 #, tmp390
	leaq	(%rbx,%rcx,4), %r15	 #, ivtmp.1018
	leaq	render_target(%rip), %rcx	 #, tmp392
	leaq	(%rax,%rcx), %r8	 #, ivtmp.1019
	movl	264(%rsp), %eax	 # end_y, tmp394
	movslq	256(%rsp), %rcx	 # start_y, start_y
	subl	256(%rsp), %eax	 # start_y, tmp394
	addq	%rcx, %rax	 # start_y, tmp396
	movl	%r11d, %ecx	 # <retval>, <retval>
	movl	%edx, %r11d	 # ey12, ey12
	leaq	(%rax,%rax,4), %rax	 #, tmp399
	salq	$9, %rax	 #, tmp400
	addq	%r9, %rax	 # _189, tmp401
	addq	%r10, %rax	 # _50, tmp402
	leaq	(%rbx,%rax,4), %rax	 #, _377
	vmovq	%rax, %xmm0	 # _377, _377
	movq	%r10, %rax	 # _50, _50
	negq	%rax	 # _50
	vmovdqa64	%xmm0, %xmm31	 # _377, _377
	salq	$2, %rax	 #, tmp406
	movq	%rax, 40(%rsp)	 # tmp406, %sfp
 # mahjong.c:735:     int_u &= (tex_width-1);
	movl	(%rsp), %eax	 # %sfp, tex_width
 # mahjong.c:736:     int_v &= (tex_height-1);
	movq	%r8, (%rsp)	 # ivtmp.1019, %sfp
 # mahjong.c:735:     int_u &= (tex_width-1);
	leal	-1(%rax), %ebx	 #, _369
 # mahjong.c:736:     int_v &= (tex_height-1);
	movl	%eax, %r8d	 # tex_width, tex_width
 # mahjong.c:735:     int_u &= (tex_width-1);
	vmovd	%ebx, %xmm30	 # _369, _369
 # mahjong.c:736:     int_v &= (tex_height-1);
	movl	28(%rsp), %ebx	 # %sfp, tex_height
	vmovdqa32	%xmm30, %xmm24	 # _369, _369
	decl	%ebx	 # _370
	vmovd	%ebx, %xmm29	 # _370, _370
	.p2align 4
	.p2align 3
.L488:
 # mahjong.c:1090:         f32 *zbuf_row = &zbuffer[y*RENDER_WIDTH + minx];
	movq	40(%rsp), %rax	 # %sfp, tmp406
 # mahjong.c:1087:         u8 *row = &render_target[y*RENDER_WIDTH + minx];
	movq	(%rsp), %r14	 # %sfp, row
 # mahjong.c:1090:         f32 *zbuf_row = &zbuffer[y*RENDER_WIDTH + minx];
	leaq	(%r15,%rax), %rdx	 #, zbuf_row
 # mahjong.c:1093:         for (i32 x = minx; x < maxx; x++) {
	movl	248(%rsp), %eax	 # end_x, tmp613
	cmpl	%eax, 240(%rsp)	 # tmp613, start_x
	jge	.L484	 #,
 # mahjong.c:1082:         i32 ex01 = ey01;
	movl	12(%rsp), %r9d	 # %sfp, ex01
 # mahjong.c:1084:         i32 ex20 = ey20;
	movl	%r12d, %ebx	 # ey20, ex20
 # mahjong.c:1083:         i32 ex12 = ey12;
	movl	%r11d, %r10d	 # ey12, ex12
 # mahjong.c:733:     i32 int_u = (i32)fast_floor(u * (f32)tex_width);// & 1023;
	vcvtsi2ssl	%r8d, %xmm4, %xmm25	 # tex_width, tmp505, tmp507
 # mahjong.c:1082:         i32 ex01 = ey01;
	movl	%r12d, 8(%rsp)	 # ey20, %sfp
	movl	%r11d, 32(%rsp)	 # ey12, %sfp
	vmovq	%xmm23, %r12	 # texels, texels
	movl	%r8d, %r11d	 # tex_width, tex_width
	vmovq	%xmm10, %r13	 # _317, _317
	movq	%r14, %r8	 # row, row
	movl	%ebx, %r14d	 # ex20, ex20
	movl	%r10d, %ebx	 # ex12, ex12
 # mahjong.c:734:     i32 int_v = (i32)fast_floor(v * (f32)tex_height);// & 1023;
	vcvtsi2ssl	28(%rsp), %xmm4, %xmm3	 # %sfp, tmp505, tmp508
 # mahjong.c:1082:         i32 ex01 = ey01;
	movl	%r9d, %r10d	 # ex01, ex01
	movq	%rdx, %r9	 # zbuf_row, zbuf_row
	.p2align 4
	.p2align 3
.L487:
 # mahjong.c:1096:             f32 w0 = (f32)ex12;
	vcvtsi2ssl	%ebx, %xmm4, %xmm0	 # ex12, tmp505, tmp509
 # mahjong.c:1097:             f32 w1 = (f32)ex20;
	vcvtsi2ssl	%r14d, %xmm4, %xmm7	 # ex20, tmp505, tmp510
 # mahjong.c:1099:             f32 inv_z = (w0 * iz0 + w1 * iz1 +  w2 * iz2) * recip_area;
	vmulss	%xmm0, %xmm16, %xmm1	 # w0, iz0, tmp407
 # mahjong.c:1099:             f32 inv_z = (w0 * iz0 + w1 * iz1 +  w2 * iz2) * recip_area;
	vmulss	%xmm7, %xmm17, %xmm2	 # w1, iz1, tmp408
 # mahjong.c:1098:             f32 w2 = (f32)ex01;
	vcvtsi2ssl	%r10d, %xmm4, %xmm6	 # ex01, tmp505, tmp511
 # mahjong.c:1099:             f32 inv_z = (w0 * iz0 + w1 * iz1 +  w2 * iz2) * recip_area;
	vaddss	%xmm2, %xmm1, %xmm1	 # tmp408, tmp407, tmp409
 # mahjong.c:1099:             f32 inv_z = (w0 * iz0 + w1 * iz1 +  w2 * iz2) * recip_area;
	vmulss	%xmm6, %xmm18, %xmm2	 # w2, iz2, tmp410
 # mahjong.c:1099:             f32 inv_z = (w0 * iz0 + w1 * iz1 +  w2 * iz2) * recip_area;
	vaddss	%xmm2, %xmm1, %xmm1	 # tmp410, tmp409, tmp411
 # mahjong.c:1099:             f32 inv_z = (w0 * iz0 + w1 * iz1 +  w2 * iz2) * recip_area;
	vmulss	%xmm5, %xmm1, %xmm1	 # recip_area, tmp411, inv_z
 # mahjong.c:1107:             if(inv_z >= zbuf_val) {
	vcomiss	(%r9), %xmm1	 # MEM[(f32 *)zbuf_row_220], inv_z
	jb	.L485	 #,
 # mahjong.c:728:     f32 u_over_z = (w0 * v0u_over_z + w1 * v1u_over_z + w2 * v2u_over_z) * recip_area;
	vmulss	%xmm7, %xmm27, %xmm9	 # w1, v1u_over_z, tmp414
 # mahjong.c:728:     f32 u_over_z = (w0 * v0u_over_z + w1 * v1u_over_z + w2 * v2u_over_z) * recip_area;
	vmulss	%xmm0, %xmm28, %xmm2	 # w0, v0u_over_z, tmp413
 # mahjong.c:1100:             f32 z = 1.0f / inv_z;
	vdivss	%xmm1, %xmm22, %xmm8	 # inv_z, tmp492, z
 # mahjong.c:455:     return i - (i > x);
	xorl	%eax, %eax	 # tmp428
 # mahjong.c:729:     f32 v_over_z = (w0 * v0v_over_z + w1 * v1v_over_z + w2 * v2v_over_z) * recip_area;
	vmulss	%xmm0, %xmm19, %xmm0	 # w0, v0v_over_z, tmp420
 # mahjong.c:729:     f32 v_over_z = (w0 * v0v_over_z + w1 * v1v_over_z + w2 * v2v_over_z) * recip_area;
	vmulss	%xmm7, %xmm20, %xmm7	 # w1, v1v_over_z, tmp421
 # mahjong.c:728:     f32 u_over_z = (w0 * v0u_over_z + w1 * v1u_over_z + w2 * v2u_over_z) * recip_area;
	vaddss	%xmm9, %xmm2, %xmm2	 # tmp414, tmp413, tmp415
 # mahjong.c:728:     f32 u_over_z = (w0 * v0u_over_z + w1 * v1u_over_z + w2 * v2u_over_z) * recip_area;
	vmulss	%xmm6, %xmm26, %xmm9	 # w2, v2u_over_z, tmp416
 # mahjong.c:729:     f32 v_over_z = (w0 * v0v_over_z + w1 * v1v_over_z + w2 * v2v_over_z) * recip_area;
	vmulss	%xmm6, %xmm21, %xmm6	 # w2, v2v_over_z, tmp423
 # mahjong.c:729:     f32 v_over_z = (w0 * v0v_over_z + w1 * v1v_over_z + w2 * v2v_over_z) * recip_area;
	vaddss	%xmm7, %xmm0, %xmm0	 # tmp421, tmp420, tmp422
 # mahjong.c:728:     f32 u_over_z = (w0 * v0u_over_z + w1 * v1u_over_z + w2 * v2u_over_z) * recip_area;
	vaddss	%xmm9, %xmm2, %xmm2	 # tmp416, tmp415, tmp417
 # mahjong.c:729:     f32 v_over_z = (w0 * v0v_over_z + w1 * v1v_over_z + w2 * v2v_over_z) * recip_area;
	vaddss	%xmm6, %xmm0, %xmm0	 # tmp423, tmp422, tmp424
 # mahjong.c:728:     f32 u_over_z = (w0 * v0u_over_z + w1 * v1u_over_z + w2 * v2u_over_z) * recip_area;
	vmulss	%xmm5, %xmm2, %xmm2	 # recip_area, tmp417, u_over_z
 # mahjong.c:729:     f32 v_over_z = (w0 * v0v_over_z + w1 * v1v_over_z + w2 * v2v_over_z) * recip_area;
	vmulss	%xmm5, %xmm0, %xmm0	 # recip_area, tmp424, v_over_z
 # mahjong.c:730:     f32 u = (u_over_z * z);
	vmulss	%xmm8, %xmm2, %xmm2	 # z, u_over_z, u
 # mahjong.c:731:     f32 v = (v_over_z * z);
	vmulss	%xmm8, %xmm0, %xmm0	 # z, v_over_z, v
 # mahjong.c:733:     i32 int_u = (i32)fast_floor(u * (f32)tex_width);// & 1023;
	vmulss	%xmm25, %xmm2, %xmm2	 # _367, u, _171
 # mahjong.c:734:     i32 int_v = (i32)fast_floor(v * (f32)tex_height);// & 1023;
	vmulss	%xmm3, %xmm0, %xmm0	 # _368, v, _178
 # mahjong.c:454:     int i = (int)x;
	vcvttss2sil	%xmm2, %ecx	 # _171, i
	vcvttss2sil	%xmm0, %edx	 # _178, i
 # mahjong.c:455:     return i - (i > x);
	vcvtsi2ssl	%edx, %xmm4, %xmm6	 # i, tmp505, tmp512
 # mahjong.c:737:     u8 tex_pal_idx = texels[((tex_height-1)-int_v)*tex_width+int_u];
	notl	%edx	 # tmp431
 # mahjong.c:455:     return i - (i > x);
	vcomiss	%xmm0, %xmm6	 # _178, tmp427
	seta	%al	 #, tmp428
	vcvtsi2ssl	%ecx, %xmm4, %xmm0	 # i, tmp505, tmp513
 # mahjong.c:737:     u8 tex_pal_idx = texels[((tex_height-1)-int_v)*tex_width+int_u];
	addl	%eax, %edx	 # tmp428, tmp432
	vmovd	%xmm29, %eax	 # _370, _370
	andl	%eax, %edx	 # _370, tmp433
 # mahjong.c:455:     return i - (i > x);
	xorl	%eax, %eax	 # tmp436
 # mahjong.c:737:     u8 tex_pal_idx = texels[((tex_height-1)-int_v)*tex_width+int_u];
	imull	%r11d, %edx	 # tex_width, tmp434
 # mahjong.c:455:     return i - (i > x);
	vcomiss	%xmm2, %xmm0	 # _171, tmp435
	seta	%al	 #, tmp436
 # mahjong.c:455:     return i - (i > x);
	subl	%eax, %ecx	 # tmp436, tmp439
 # mahjong.c:735:     int_u &= (tex_width-1);
	vmovd	%xmm24, %eax	 # _369, _369
	andl	%eax, %ecx	 # _369, int_u
 # mahjong.c:737:     u8 tex_pal_idx = texels[((tex_height-1)-int_v)*tex_width+int_u];
	addl	%edx, %ecx	 # tmp434, tmp441
	movslq	%ecx, %rcx	 # tmp441, tmp442
 # mahjong.c:747:     return lit_pal_ptr[tex_pal_idx];// light_remap_table[16][WHITE];
	movzbl	(%r12,%rcx), %edx	 # *_193, *_193
 # mahjong.c:1110:                 drew_pixel = 1;
	movl	$1, %ecx	 #, <retval>
 # mahjong.c:1108:                 *row = pal_idx;
	movzbl	0(%r13,%rdx), %edx	 # *_196, *_196
	movb	%dl, (%r8)	 # *_196, MEM[(u8 *)row_219]
 # mahjong.c:1109:                 *zbuf_row = inv_z;
	vmovss	%xmm1, (%r9)	 # inv_z, MEM[(f32 *)zbuf_row_220]
.L485:
 # mahjong.c:1112:             zbuf_row++;
	addq	$4, %r9	 #, zbuf_row
 # mahjong.c:1113:             row++;
	incq	%r8	 # row
 # mahjong.c:1115:             ex01 -= dy01;
	subl	%esi, %r10d	 # dy01, ex01
 # mahjong.c:1116:             ex12 -= dy12;
	subl	%ebp, %ebx	 # dy12, ex12
 # mahjong.c:1117:             ex20 -= dy20;
	subl	%edi, %r14d	 # dy20, ex20
 # mahjong.c:1093:         for (i32 x = minx; x < maxx; x++) {
	cmpq	%r15, %r9	 # ivtmp.1018, zbuf_row
	jne	.L487	 #,
	movl	%r11d, %r8d	 # tex_width, tex_width
	movl	8(%rsp), %r12d	 # %sfp, ey20
	movl	32(%rsp), %r11d	 # %sfp, ey12
.L484:
 # mahjong.c:1124:         ey12 += dx12;
	movl	20(%rsp), %eax	 # %sfp, dx12
 # mahjong.c:1123:         ey01 += dx01;
	movl	16(%rsp), %ebx	 # %sfp, dx01
 # mahjong.c:1081:     for (i32 y = miny; y < maxy; y++) {
	addq	$10240, %r15	 #, ivtmp.1018
	addq	$2560, (%rsp)	 #, %sfp
 # mahjong.c:1123:         ey01 += dx01;
	addl	%ebx, 12(%rsp)	 # dx01, %sfp
 # mahjong.c:1124:         ey12 += dx12;
	addl	%eax, %r11d	 # dx12, ey12
 # mahjong.c:1125:         ey20 += dx20;
	movl	24(%rsp), %eax	 # %sfp, dx20
	addl	%eax, %r12d	 # dx20, ey20
 # mahjong.c:1081:     for (i32 y = miny; y < maxy; y++) {
	vmovq	%xmm31, %rax	 # _377, _377
	cmpq	%rax, %r15	 # _377, ivtmp.1018
	jne	.L488	 #,
	movl	%ecx, %r11d	 # <retval>, <retval>
	jmp	.L478	 #
.L497:
 # mahjong.c:1012:     int drew_pixel = 0;
	xorl	%r11d, %r11d	 # <retval>
 # mahjong.c:1127:     return drew_pixel;
	jmp	.L478	 #
	.seh_endproc
	.p2align 4
	.globl	triangle_block
	.def	triangle_block;	.scl	2;	.type	32;	.endef
	.seh_proc	triangle_block
triangle_block:
	pushq	%r15	 #
	.seh_pushreg	%r15
	pushq	%r14	 #
	.seh_pushreg	%r14
	pushq	%r13	 #
	.seh_pushreg	%r13
	pushq	%r12	 #
	.seh_pushreg	%r12
	pushq	%rbp	 #
	.seh_pushreg	%rbp
	pushq	%rdi	 #
	.seh_pushreg	%rdi
	pushq	%rsi	 #
	.seh_pushreg	%rsi
	pushq	%rbx	 #
	.seh_pushreg	%rbx
	subq	$488, %rsp	 #,
	.seh_stackalloc	488
	vmovups	%xmm6, 320(%rsp)	 #,
	.seh_savexmm	%xmm6, 320
	vmovups	%xmm7, 336(%rsp)	 #,
	.seh_savexmm	%xmm7, 336
	vmovups	%xmm8, 352(%rsp)	 #,
	.seh_savexmm	%xmm8, 352
	vmovups	%xmm9, 368(%rsp)	 #,
	.seh_savexmm	%xmm9, 368
	vmovups	%xmm10, 384(%rsp)	 #,
	.seh_savexmm	%xmm10, 384
	vmovups	%xmm11, 400(%rsp)	 #,
	.seh_savexmm	%xmm11, 400
	vmovups	%xmm12, 416(%rsp)	 #,
	.seh_savexmm	%xmm12, 416
	vmovups	%xmm13, 432(%rsp)	 #,
	.seh_savexmm	%xmm13, 432
	vmovups	%xmm14, 448(%rsp)	 #,
	.seh_savexmm	%xmm14, 448
	vmovups	%xmm15, 464(%rsp)	 #,
	.seh_savexmm	%xmm15, 464
	.seh_endprologue
 # mahjong.c:1162:     f32 diffuse = CLAMP(avg_c, 0.0f, 1.0f);
	vxorps	%xmm4, %xmm4, %xmm4	 # tmp475
 # mahjong.c:1160:     f32 avg_c = (c0+c1+c2)/3.0f;
	vmovss	40(%r8), %xmm0	 # tri_attributes_171(D)->c1, tri_attributes_171(D)->c1
	vaddss	36(%r8), %xmm0, %xmm0	 # tri_attributes_171(D)->c0, tri_attributes_171(D)->c1, tmp471
 # mahjong.c:1144:     f32 iz0 = tri_attributes->inv_z1;
	vmovss	116(%r8), %xmm3	 # tri_attributes_171(D)->inv_z1, iz0
 # mahjong.c:1139: ) {
	movq	%r9, %rax	 # tmp765, tex
 # mahjong.c:1160:     f32 avg_c = (c0+c1+c2)/3.0f;
	vaddss	44(%r8), %xmm0, %xmm0	 # tri_attributes_171(D)->c2, tmp471, tmp473
 # mahjong.c:1145:     f32 iz1 = tri_attributes->inv_z0;
	vmovss	112(%r8), %xmm2	 # tri_attributes_171(D)->inv_z0, iz1
 # mahjong.c:1146:     f32 iz2 = tri_attributes->inv_z2;
	vmovss	120(%r8), %xmm1	 # tri_attributes_171(D)->inv_z2, iz2
 # mahjong.c:1139: ) {
	movq	%rdx, 568(%rsp)	 # tmp763, zbuffer
 # mahjong.c:1160:     f32 avg_c = (c0+c1+c2)/3.0f;
	vdivss	.LC25(%rip), %xmm0, %xmm0	 #, tmp473, avg_c
 # mahjong.c:1151:     vert3f v0 = tri_attributes->proj_v1;
	vmovss	12(%r8), %xmm13	 # tri_attributes_171(D)->proj_v1.x, v0$x
	vmovss	16(%r8), %xmm9	 # tri_attributes_171(D)->proj_v1.y, v0$y
 # mahjong.c:1152:     vert3f v1 = tri_attributes->proj_v0;
	vmovss	(%r8), %xmm8	 # tri_attributes_171(D)->proj_v0.x, v1$x
	vmovss	4(%r8), %xmm7	 # tri_attributes_171(D)->proj_v0.y, v1$y
 # mahjong.c:1153:     vert3f v2 = tri_attributes->proj_v2;
	vmovss	24(%r8), %xmm6	 # tri_attributes_171(D)->proj_v2.x, v2$x
	vmovss	28(%r8), %xmm5	 # tri_attributes_171(D)->proj_v2.y, v2$y
 # mahjong.c:1154:     vert2f uv0 = tri_attributes->uv1;
	vmovss	56(%r8), %xmm18	 # tri_attributes_171(D)->uv1.x, uv0$x
	vmovss	60(%r8), %xmm17	 # tri_attributes_171(D)->uv1.y, uv0$y
 # mahjong.c:1155:     vert2f uv1 = tri_attributes->uv0;
	vmovss	48(%r8), %xmm16	 # tri_attributes_171(D)->uv0.x, uv1$x
	vmovss	52(%r8), %xmm15	 # tri_attributes_171(D)->uv0.y, uv1$y
 # mahjong.c:1156:     vert2f uv2 = tri_attributes->uv2;
	vmovss	64(%r8), %xmm14	 # tri_attributes_171(D)->uv2.x, uv2$x
 # mahjong.c:571:     for(int i = 0; i < 4; i++) { res[i] = a; }
	vinsertps	$0xe, %xmm3, %xmm3, %xmm12	 # iz0, res
	vinsertps	$16, %xmm3, %xmm12, %xmm12	 #, iz0, res, res
 # mahjong.c:1156:     vert2f uv2 = tri_attributes->uv2;
	vmovss	68(%r8), %xmm19	 # tri_attributes_171(D)->uv2.y, uv2$y
 # mahjong.c:1139: ) {
	movl	600(%rsp), %r9d	 # end_x, end_x
 # mahjong.c:571:     for(int i = 0; i < 4; i++) { res[i] = a; }
	vinsertps	$0xe, %xmm2, %xmm2, %xmm10	 # iz1, res
	vinsertps	$0xe, %xmm1, %xmm1, %xmm11	 # iz2, res
	vinsertps	$16, %xmm2, %xmm10, %xmm10	 #, iz1, res, res
	vinsertps	$16, %xmm1, %xmm11, %xmm11	 #, iz2, res, res
	vinsertps	$32, %xmm3, %xmm12, %xmm12	 #, iz0, res, res
	vinsertps	$32, %xmm2, %xmm10, %xmm10	 #, iz1, res, res
	vinsertps	$32, %xmm1, %xmm11, %xmm11	 #, iz2, res, res
	vinsertps	$48, %xmm3, %xmm12, %xmm12	 #, iz0, res, res
	vinsertps	$48, %xmm2, %xmm10, %xmm10	 #, iz1, res, res
	vinsertps	$48, %xmm1, %xmm11, %xmm11	 #, iz2, res, res
 # mahjong.c:1162:     f32 diffuse = CLAMP(avg_c, 0.0f, 1.0f);
	vcomiss	%xmm4, %xmm0	 # tmp475, avg_c
	jbe	.L575	 #,
 # mahjong.c:1162:     f32 diffuse = CLAMP(avg_c, 0.0f, 1.0f);
	vmovss	.LC17(%rip), %xmm4	 #, tmp699
	vcomiss	%xmm0, %xmm4	 # avg_c, tmp699
	ja	.L577	 #,
	leaq	144+light_remap_table(%rip), %rsi	 #, prephitmp_412
	movq	%rsi, 224(%rsp)	 # prephitmp_412, %sfp
.L511:
 # mahjong.c:1170:     f32 v0u_over_z = uv0.x * iz0;
	vmulss	%xmm18, %xmm3, %xmm0	 # uv0$x, iz0, v0u_over_z
 # mahjong.c:1179:     int tex_width = tex->width;
	movl	32(%rax), %esi	 # tex_201(D)->width, tex_width
 # mahjong.c:1171:     f32 v0v_over_z = uv0.y * iz0;
	vmulss	%xmm17, %xmm3, %xmm17	 # uv0$y, iz0, v0v_over_z
 # mahjong.c:1174:     f32 v1v_over_z = uv1.y * iz1;
	vmulss	%xmm15, %xmm2, %xmm3	 # uv1$y, iz1, v1v_over_z
 # mahjong.c:1173:     f32 v1u_over_z = uv1.x * iz1;
	vmulss	%xmm16, %xmm2, %xmm16	 # uv1$x, iz1, v1u_over_z
 # mahjong.c:1170:     f32 v0u_over_z = uv0.x * iz0;
	vmovss	%xmm0, 192(%rsp)	 # v0u_over_z, %sfp
 # mahjong.c:1184:     const i32 x0 = (i32)(v0.x * 16.0f);
	vmovss	.LC24(%rip), %xmm0	 #, tmp489
 # mahjong.c:1174:     f32 v1v_over_z = uv1.y * iz1;
	vmovss	%xmm3, 196(%rsp)	 # v1v_over_z, %sfp
 # mahjong.c:1176:     f32 v2u_over_z = uv2.x * iz2;
	vmulss	%xmm14, %xmm1, %xmm3	 # uv2$x, iz2, v2u_over_z
 # mahjong.c:1179:     int tex_width = tex->width;
	movl	%esi, 208(%rsp)	 # tex_width, %sfp
 # mahjong.c:1180:     int tex_height = tex->height;
	movl	36(%rax), %esi	 # tex_201(D)->height, tex_height
 # mahjong.c:1181:     u8* texels = tex->texels;
	movq	8(%rax), %rax	 # tex_201(D)->texels, texels
 # mahjong.c:1176:     f32 v2u_over_z = uv2.x * iz2;
	vmovss	%xmm3, 200(%rsp)	 # v2u_over_z, %sfp
 # mahjong.c:1177:     f32 v2v_over_z = uv2.y* iz2;
	vmulss	%xmm19, %xmm1, %xmm3	 # uv2$y, iz2, v2v_over_z
 # mahjong.c:1185:     const i32 y0 = (i32)(v0.y * 16.0f);
	vmulss	%xmm0, %xmm9, %xmm9	 # tmp489, v0$y, tmp490
 # mahjong.c:1187:     const i32 y1 = (i32)(v1.y * 16.0f);
	vmulss	%xmm0, %xmm7, %xmm7	 # tmp489, v1$y, tmp494
 # mahjong.c:1181:     u8* texels = tex->texels;
	movq	%rax, 216(%rsp)	 # texels, %sfp
 # mahjong.c:1189:     const i32 y2 = (i32)(v2.y * 16.0f);
	vmulss	%xmm0, %xmm5, %xmm5	 # tmp489, v2$y, tmp498
 # mahjong.c:1180:     int tex_height = tex->height;
	movl	%esi, 212(%rsp)	 # tex_height, %sfp
 # mahjong.c:1184:     const i32 x0 = (i32)(v0.x * 16.0f);
	vmulss	%xmm0, %xmm13, %xmm13	 # tmp489, v0$x, tmp488
 # mahjong.c:1186:     const i32 x1 = (i32)(v1.x * 16.0f);
	vmulss	%xmm0, %xmm8, %xmm8	 # tmp489, v1$x, tmp492
 # mahjong.c:1188:     const i32 x2 = (i32)(v2.x * 16.0f);
	vmulss	%xmm0, %xmm6, %xmm6	 # tmp489, v2$x, tmp496
 # mahjong.c:1210:     f32 recip_area = 1.0f / (f32)area;
	vxorps	%xmm0, %xmm0, %xmm0	 # tmp767
 # mahjong.c:1177:     f32 v2v_over_z = uv2.y* iz2;
	vmovss	%xmm3, 204(%rsp)	 # v2v_over_z, %sfp
 # mahjong.c:1185:     const i32 y0 = (i32)(v0.y * 16.0f);
	vcvttss2sil	%xmm9, %r11d	 # tmp490, y0
 # mahjong.c:1194:     const i32 dy01 = y0 - y1;
	movl	%r11d, %edi	 # y0, dy01
 # mahjong.c:1187:     const i32 y1 = (i32)(v1.y * 16.0f);
	vcvttss2sil	%xmm7, %r8d	 # tmp494, y1
 # mahjong.c:1196:     const i32 dy12 = y1 - y2;
	movl	%r8d, %r13d	 # y1, dy12
 # mahjong.c:1194:     const i32 dy01 = y0 - y1;
	subl	%r8d, %edi	 # y1, dy01
 # mahjong.c:1189:     const i32 y2 = (i32)(v2.y * 16.0f);
	vcvttss2sil	%xmm5, %edx	 # tmp498, y2
 # mahjong.c:1196:     const i32 dy12 = y1 - y2;
	subl	%edx, %r13d	 # y2, dy12
 # mahjong.c:1198:     const i32 dy20 = y2 - y0;
	movl	%edx, %esi	 # y2, dy20
 # mahjong.c:1200:     const i32_vec dy01_shifted_vec = broadcast_i32_vec(dy01<<5);
	movl	%edi, %eax	 # dy01, _13
 # mahjong.c:1198:     const i32 dy20 = y2 - y0;
	subl	%r11d, %esi	 # y0, dy20
 # mahjong.c:1184:     const i32 x0 = (i32)(v0.x * 16.0f);
	vcvttss2sil	%xmm13, %ebx	 # tmp488, x0
 # mahjong.c:1193:     const i32 dx01 = x0 - x1;
	movl	%ebx, %r12d	 # x0, dx01
 # mahjong.c:1200:     const i32_vec dy01_shifted_vec = broadcast_i32_vec(dy01<<5);
	sall	$5, %eax	 #, _13
 # mahjong.c:1186:     const i32 x1 = (i32)(v1.x * 16.0f);
	vcvttss2sil	%xmm8, %r10d	 # tmp492, x1
 # mahjong.c:1188:     const i32 x2 = (i32)(v2.x * 16.0f);
	vcvttss2sil	%xmm6, %ecx	 # tmp496, x2
 # mahjong.c:545:     for(int i = 0; i < 4; i++) { res[i] = a; }
	vmovd	%eax, %xmm24	 # _13, res
 # mahjong.c:1193:     const i32 dx01 = x0 - x1;
	subl	%r10d, %r12d	 # x1, dx01
 # mahjong.c:1195:     const i32 dx12 = x1 - x2;
	movl	%r10d, %r15d	 # x1, dx12
 # mahjong.c:1197:     const i32 dx20 = x2 - x0;
	movl	%ecx, %ebp	 # x2, dx20
 # mahjong.c:545:     for(int i = 0; i < 4; i++) { res[i] = a; }
	vpinsrd	$1, %eax, %xmm24, %xmm24	 #, _13, res, res
 # mahjong.c:1195:     const i32 dx12 = x1 - x2;
	subl	%ecx, %r15d	 # x2, dx12
 # mahjong.c:1197:     const i32 dx20 = x2 - x0;
	subl	%ebx, %ebp	 # x0, dx20
 # mahjong.c:1208:     i32 area = (dx01 * dy20 - dy01 * dx20);
	movl	%edi, %r14d	 # dy01, tmp525
 # mahjong.c:545:     for(int i = 0; i < 4; i++) { res[i] = a; }
	vpinsrd	$2, %eax, %xmm24, %xmm24	 #, _13, res, res
 # mahjong.c:1208:     i32 area = (dx01 * dy20 - dy01 * dx20);
	imull	%ebp, %r14d	 # dx20, tmp525
 # mahjong.c:545:     for(int i = 0; i < 4; i++) { res[i] = a; }
	vpinsrd	$3, %eax, %xmm24, %xmm24	 #, _13, res, res
 # mahjong.c:1201:     const i32_vec dy12_shifted_vec = broadcast_i32_vec(dy12<<5);
	movl	%r13d, %eax	 # dy12, _14
	sall	$5, %eax	 #, _14
 # mahjong.c:545:     for(int i = 0; i < 4; i++) { res[i] = a; }
	vmovd	%eax, %xmm26	 # _14, res
	vpinsrd	$1, %eax, %xmm26, %xmm26	 #, _14, res, res
	vpinsrd	$2, %eax, %xmm26, %xmm26	 #, _14, res, res
	vpinsrd	$3, %eax, %xmm26, %xmm26	 #, _14, res, res
 # mahjong.c:1202:     const i32_vec dy20_shifted_vec = broadcast_i32_vec(dy20<<5);
	movl	%esi, %eax	 # dy20, _15
	sall	$5, %eax	 #, _15
 # mahjong.c:545:     for(int i = 0; i < 4; i++) { res[i] = a; }
	vmovd	%eax, %xmm25	 # _15, res
	vpinsrd	$1, %eax, %xmm25, %xmm25	 #, _15, res, res
	vpinsrd	$2, %eax, %xmm25, %xmm25	 #, _15, res, res
	vpinsrd	$3, %eax, %xmm25, %xmm25	 #, _15, res, res
 # mahjong.c:1203:     const i32_vec dx01_shifted_vec = broadcast_i32_vec(dx01<<5);
	movl	%r12d, %eax	 # dx01, _16
	sall	$5, %eax	 #, _16
 # mahjong.c:545:     for(int i = 0; i < 4; i++) { res[i] = a; }
	vmovd	%eax, %xmm15	 # _16, res
	vpinsrd	$1, %eax, %xmm15, %xmm15	 #, _16, res, res
	vpinsrd	$2, %eax, %xmm15, %xmm15	 #, _16, res, res
	vpinsrd	$3, %eax, %xmm15, %xmm15	 #, _16, res, res
 # mahjong.c:1204:     const i32_vec dx12_shifted_vec = broadcast_i32_vec(dx12<<5);
	movl	%r15d, %eax	 # dx12, _17
	sall	$5, %eax	 #, _17
 # mahjong.c:545:     for(int i = 0; i < 4; i++) { res[i] = a; }
	vmovd	%eax, %xmm14	 # _17, res
	vpinsrd	$1, %eax, %xmm14, %xmm14	 #, _17, res, res
	vpinsrd	$2, %eax, %xmm14, %xmm14	 #, _17, res, res
	vpinsrd	$3, %eax, %xmm14, %xmm14	 #, _17, res, res
 # mahjong.c:1205:     const i32_vec dx20_shifted_vec = broadcast_i32_vec(dx20<<5); // shift by 4 for subpixel, but double again because we're using 2x2 quad blocks now 
	movl	%ebp, %eax	 # dx20, _18
	sall	$5, %eax	 #, _18
 # mahjong.c:545:     for(int i = 0; i < 4; i++) { res[i] = a; }
	vmovd	%eax, %xmm13	 # _18, res
	vpinsrd	$1, %eax, %xmm13, %xmm13	 #, _18, res, res
	vpinsrd	$2, %eax, %xmm13, %xmm13	 #, _18, res, res
	vpinsrd	$3, %eax, %xmm13, %xmm13	 #, _18, res, res
 # mahjong.c:1208:     i32 area = (dx01 * dy20 - dy01 * dx20);
	movl	%r12d, %eax	 # dx01, tmp524
	imull	%esi, %eax	 # dy20, tmp524
 # mahjong.c:1208:     i32 area = (dx01 * dy20 - dy01 * dx20);
	subl	%r14d, %eax	 # tmp525, area
 # mahjong.c:1215:     i32 minx = MIN(x0, MIN(x1, x2));
	cmpl	%r10d, %ebx	 # x1, x0
 # mahjong.c:1210:     f32 recip_area = 1.0f / (f32)area;
	vcvtsi2ssl	%eax, %xmm0, %xmm0	 # area, tmp767, tmp768
 # mahjong.c:1215:     i32 minx = MIN(x0, MIN(x1, x2));
	movl	%r10d, %eax	 # x1, tmp535
 # mahjong.c:1210:     f32 recip_area = 1.0f / (f32)area;
	vdivss	%xmm0, %xmm4, %xmm4	 # tmp527, tmp699, recip_area
 # mahjong.c:1215:     i32 minx = MIN(x0, MIN(x1, x2));
	cmovle	%ebx, %eax	 # x0,, tmp535
	cmpl	%ecx, %eax	 # x2, tmp535
	cmovg	%ecx, %eax	 # tmp535,, x2, minx
 # mahjong.c:1222:     minx = CLAMP((minx + 15) >> 4, start_x, end_x) & ~1; // mask off low bit to align to 2 pixels
	addl	$15, %eax	 #, tmp536
	sarl	$4, %eax	 #, tmp537
	cmpl	592(%rsp), %eax	 # start_x, tmp537
	cmovl	592(%rsp), %eax	 # tmp537,, start_x, tmp533
 # mahjong.c:571:     for(int i = 0; i < 4; i++) { res[i] = a; }
	vinsertps	$0xe, %xmm4, %xmm4, %xmm9	 # recip_area, res
	vinsertps	$16, %xmm4, %xmm9, %xmm9	 #, recip_area, res, res
	vinsertps	$32, %xmm4, %xmm9, %xmm9	 #, recip_area, res, res
	vinsertps	$48, %xmm4, %xmm9, %xmm9	 #, recip_area, res, res
 # mahjong.c:1222:     minx = CLAMP((minx + 15) >> 4, start_x, end_x) & ~1; // mask off low bit to align to 2 pixels
	cmpl	%r9d, %eax	 # end_x, tmp533
	cmovg	%r9d, %eax	 # tmp533,, end_x, _29
 # mahjong.c:1222:     minx = CLAMP((minx + 15) >> 4, start_x, end_x) & ~1; // mask off low bit to align to 2 pixels
	andl	$-2, %eax	 #, _29
 # mahjong.c:1216:     i32 maxx = MAX(x0, MAX(x1, x2));
	cmpl	%r10d, %ebx	 # x1, x0
 # mahjong.c:1222:     minx = CLAMP((minx + 15) >> 4, start_x, end_x) & ~1; // mask off low bit to align to 2 pixels
	movl	%eax, 176(%rsp)	 # _29, %sfp
 # mahjong.c:1216:     i32 maxx = MAX(x0, MAX(x1, x2));
	movl	%r10d, %eax	 # x1, tmp539
	cmovge	%ebx, %eax	 # x0,, tmp539
	cmpl	%ecx, %eax	 # x2, tmp539
	cmovl	%ecx, %eax	 # tmp539,, x2, maxx
 # mahjong.c:1223:     maxx = CLAMP((maxx + 15) >> 4, start_x, end_x);
	addl	$15, %eax	 #, tmp540
	sarl	$4, %eax	 #, tmp541
	cmpl	592(%rsp), %eax	 # start_x, tmp541
	cmovl	592(%rsp), %eax	 # tmp541,, start_x, _32
 # mahjong.c:1223:     maxx = CLAMP((maxx + 15) >> 4, start_x, end_x);
	cmpl	%r9d, %eax	 # end_x, _32
	cmovle	%eax, %r9d	 # _32,, end_x
 # mahjong.c:1217:     i32 miny = MIN(y0, MIN(y1, y2)); 
	cmpl	%r8d, %r11d	 # y1, y0
	movl	%r8d, %eax	 # y1, tmp544
	cmovle	%r11d, %eax	 # y0,, tmp544
 # mahjong.c:1223:     maxx = CLAMP((maxx + 15) >> 4, start_x, end_x);
	movl	%r9d, 252(%rsp)	 # end_x, %sfp
 # mahjong.c:1217:     i32 miny = MIN(y0, MIN(y1, y2)); 
	cmpl	%edx, %eax	 # y2, tmp544
	cmovg	%edx, %eax	 # tmp544,, y2, miny
 # mahjong.c:1224:     miny = CLAMP((miny + 15) >> 4, start_y, end_y) & ~1; // mask off low bit to align to 2 pixels
	addl	$15, %eax	 #, tmp545
	sarl	$4, %eax	 #, tmp546
	cmpl	608(%rsp), %eax	 # start_y, tmp546
	cmovl	608(%rsp), %eax	 # tmp546,, start_y, tmp542
	cmpl	616(%rsp), %eax	 # end_y, tmp542
	cmovg	616(%rsp), %eax	 # tmp542,, end_y, _36
 # mahjong.c:1224:     miny = CLAMP((miny + 15) >> 4, start_y, end_y) & ~1; // mask off low bit to align to 2 pixels
	andl	$-2, %eax	 #, _36
 # mahjong.c:1218:     i32 maxy = MAX(y0, MAX(y1, y2));
	cmpl	%r8d, %r11d	 # y1, y0
 # mahjong.c:1224:     miny = CLAMP((miny + 15) >> 4, start_y, end_y) & ~1; // mask off low bit to align to 2 pixels
	movl	%eax, %r9d	 # _36, miny
 # mahjong.c:1218:     i32 maxy = MAX(y0, MAX(y1, y2));
	movl	%r8d, %eax	 # y1, tmp548
	cmovge	%r11d, %eax	 # y0,, tmp548
	cmpl	%edx, %eax	 # y2, tmp548
	cmovl	%edx, %eax	 # tmp548,, y2, maxy
 # mahjong.c:1225:     maxy = CLAMP((maxy + 15) >> 4, start_y, end_y);
	addl	$15, %eax	 #, tmp549
	sarl	$4, %eax	 #, tmp550
	cmpl	608(%rsp), %eax	 # start_y, tmp550
	cmovl	608(%rsp), %eax	 # tmp550,, start_y, _39
 # mahjong.c:1225:     maxy = CLAMP((maxy + 15) >> 4, start_y, end_y);
	cmpl	616(%rsp), %eax	 # end_y, _39
	cmovg	616(%rsp), %eax	 # _39,, end_y, _39
 # mahjong.c:1228:     i32 e01 = dy01 * x0 - dx01 * y0;
	imull	%edi, %ebx	 # dy01, tmp551
 # mahjong.c:1228:     i32 e01 = dy01 * x0 - dx01 * y0;
	imull	%r12d, %r11d	 # dx01, tmp552
 # mahjong.c:1229:     i32 e12 = dy12 * x1 - dx12 * y1;
	imull	%r13d, %r10d	 # dy12, tmp553
 # mahjong.c:1229:     i32 e12 = dy12 * x1 - dx12 * y1;
	imull	%r15d, %r8d	 # dx12, tmp554
 # mahjong.c:1230:     i32 e20 = dy20 * x2 - dx20 * y2;
	imull	%esi, %ecx	 # dy20, tmp555
 # mahjong.c:1228:     i32 e01 = dy01 * x0 - dx01 * y0;
	subl	%r11d, %ebx	 # tmp552, tmp551
 # mahjong.c:1230:     i32 e20 = dy20 * x2 - dx20 * y2;
	imull	%ebp, %edx	 # dx20, tmp556
 # mahjong.c:1225:     maxy = CLAMP((maxy + 15) >> 4, start_y, end_y);
	movl	%eax, 248(%rsp)	 # _39, %sfp
 # mahjong.c:1228:     i32 e01 = dy01 * x0 - dx01 * y0;
	movl	%ebx, 140(%rsp)	 # tmp551, %sfp
 # mahjong.c:1229:     i32 e12 = dy12 * x1 - dx12 * y1;
	subl	%r8d, %r10d	 # tmp554, tmp553
	movl	%r10d, 144(%rsp)	 # tmp553, %sfp
 # mahjong.c:1230:     i32 e20 = dy20 * x2 - dx20 * y2;
	subl	%edx, %ecx	 # tmp556, tmp555
	movl	%ecx, 160(%rsp)	 # tmp555, %sfp
 # mahjong.c:1239:     if (dy01 < 0 || (dy01 == 0 && dx01 > 0)) {
	testl	%edi, %edi	 # dy01
	js	.L514	 #,
 # mahjong.c:1239:     if (dy01 < 0 || (dy01 == 0 && dx01 > 0)) {
	jne	.L543	 #,
	testl	%r12d, %r12d	 # dx01
	jle	.L543	 #,
.L514:
 # mahjong.c:1240:         c01++;
	movl	140(%rsp), %eax	 # %sfp, e01
	leal	1(%rax), %r10d	 #, c01
.L515:
 # mahjong.c:1242:     if (dy12 < 0 || (dy12 == 0 && dx12 > 0)) {
	testl	%r13d, %r13d	 # dy12
	js	.L516	 #,
 # mahjong.c:1242:     if (dy12 < 0 || (dy12 == 0 && dx12 > 0)) {
	jne	.L544	 #,
	testl	%r15d, %r15d	 # dx12
	jle	.L544	 #,
.L516:
 # mahjong.c:1243:         c12++;
	movl	144(%rsp), %eax	 # %sfp, e12
	leal	1(%rax), %ebx	 #, c12
.L517:
 # mahjong.c:1245:     if (dy20 < 0 || (dy20 == 0 && dx20 > 0)) {
	testl	%esi, %esi	 # dy20
	js	.L518	 #,
 # mahjong.c:1245:     if (dy20 < 0 || (dy20 == 0 && dx20 > 0)) {
	jne	.L545	 #,
	testl	%ebp, %ebp	 # dx20
	jle	.L545	 #,
.L518:
 # mahjong.c:1246:         c20++;
	movl	160(%rsp), %eax	 # %sfp, e20
	incl	%eax	 # c20
	movl	%eax, 240(%rsp)	 # c20, %sfp
.L519:
 # mahjong.c:1250:     i32 startY = miny << 4;
	movl	%r9d, %eax	 # miny, startY
	sall	$4, %eax	 #, startY
 # mahjong.c:1257:         c01 + dx01 * (startY+FIXED_ONE_PX) - dy01 * (startX+FIXED_ONE_PX)
	leal	16(%rax), %r11d	 #, _55
 # mahjong.c:1249:     i32 startX = minx << 4;
	movl	176(%rsp), %eax	 # %sfp, startX
 # mahjong.c:1257:         c01 + dx01 * (startY+FIXED_ONE_PX) - dy01 * (startX+FIXED_ONE_PX)
	movl	%r11d, %r8d	 # _55, _56
	imull	%r12d, %r8d	 # dx01, _56
 # mahjong.c:1255:         c01 + dx01 * startY - dy01 * (startX+FIXED_ONE_PX),
	sall	$4, %r12d	 #, tmp572
 # mahjong.c:1249:     i32 startX = minx << 4;
	sall	$4, %eax	 #, startX
 # mahjong.c:1255:         c01 + dx01 * startY - dy01 * (startX+FIXED_ONE_PX),
	movl	%r8d, 180(%rsp)	 # _56, %sfp
 # mahjong.c:1257:         c01 + dx01 * (startY+FIXED_ONE_PX) - dy01 * (startX+FIXED_ONE_PX)
	addl	$16, %eax	 #, _58
 # mahjong.c:1257:         c01 + dx01 * (startY+FIXED_ONE_PX) - dy01 * (startX+FIXED_ONE_PX)
	leal	(%r8,%r10), %edx	 #, _57
 # mahjong.c:1257:         c01 + dx01 * (startY+FIXED_ONE_PX) - dy01 * (startX+FIXED_ONE_PX)
	movl	%eax, 136(%rsp)	 # _58, %sfp
	imull	%edi, %eax	 # dy01, _59
 # mahjong.c:1256:         c01 + dx01 * (startY+FIXED_ONE_PX) - dy01 * startX,
	sall	$4, %edi	 #, tmp571
	movl	%eax, %ecx	 # _59, _61
	subl	%edi, %ecx	 # tmp571, _61
 # mahjong.c:1255:         c01 + dx01 * startY - dy01 * (startX+FIXED_ONE_PX),
	movl	%r8d, %edi	 # _56, _63
	subl	%r12d, %edi	 # tmp572, _63
 # mahjong.c:1263:         c12 + dx12 * (startY+FIXED_ONE_PX) - dy12 * (startX+FIXED_ONE_PX)
	movl	%r11d, %r12d	 # _55, _67
 # mahjong.c:1255:         c01 + dx01 * startY - dy01 * (startX+FIXED_ONE_PX),
	addl	%edi, %r10d	 # _63, _64
 # mahjong.c:1263:         c12 + dx12 * (startY+FIXED_ONE_PX) - dy12 * (startX+FIXED_ONE_PX)
	imull	%r15d, %r12d	 # dx12, _67
 # mahjong.c:1255:         c01 + dx01 * startY - dy01 * (startX+FIXED_ONE_PX),
	movl	%edi, 184(%rsp)	 # _63, %sfp
 # mahjong.c:1263:         c12 + dx12 * (startY+FIXED_ONE_PX) - dy12 * (startX+FIXED_ONE_PX)
	movl	%r11d, %edi	 # _55, _55
 # mahjong.c:1253:     i32_vec cy01_vec = init_i32_vec(
	movl	%r10d, %r14d	 # _64, tmp573
	subl	%eax, %r10d	 # _59, tmp575
	subl	%ecx, %r14d	 # _61, tmp573
 # mahjong.c:583:     res[0] = a;
	vmovd	%r14d, %xmm7	 # tmp573, res
 # mahjong.c:1253:     i32_vec cy01_vec = init_i32_vec(
	movl	%edx, %r14d	 # _57, tmp577
	subl	%eax, %edx	 # _59, tmp579
	subl	%ecx, %r14d	 # _61, tmp577
 # mahjong.c:584:     res[1] = b;
	vpinsrd	$1, %r10d, %xmm7, %xmm7	 #, tmp575, res, res
 # mahjong.c:1263:         c12 + dx12 * (startY+FIXED_ONE_PX) - dy12 * (startX+FIXED_ONE_PX)
	leal	(%r12,%rbx), %r10d	 #, _68
 # mahjong.c:585:     res[2] = c;
	vpinsrd	$2, %r14d, %xmm7, %xmm7	 #, tmp577, res, res
 # mahjong.c:1269:         c20 + dx20 * (startY+FIXED_ONE_PX) - dy20 * (startX+FIXED_ONE_PX)
	movl	240(%rsp), %r14d	 # %sfp, c20
 # mahjong.c:586:     res[3] = d;
	vpinsrd	$3, %edx, %xmm7, %xmm7	 #, tmp579, res, cy01_vec
 # mahjong.c:1263:         c12 + dx12 * (startY+FIXED_ONE_PX) - dy12 * (startX+FIXED_ONE_PX)
	movl	136(%rsp), %edx	 # %sfp, _69
 # mahjong.c:1261:         c12 + dx12 * startY - dy12 * (startX+FIXED_ONE_PX),
	sall	$4, %r15d	 #, tmp582
 # mahjong.c:1263:         c12 + dx12 * (startY+FIXED_ONE_PX) - dy12 * (startX+FIXED_ONE_PX)
	imull	%r13d, %edx	 # dy12, _69
 # mahjong.c:1262:         c12 + dx12 * (startY+FIXED_ONE_PX) - dy12 * startX,
	sall	$4, %r13d	 #, tmp581
	movl	%edx, %r11d	 # _69, _71
 # mahjong.c:1263:         c12 + dx12 * (startY+FIXED_ONE_PX) - dy12 * (startX+FIXED_ONE_PX)
	movl	%edx, %r8d	 # _69, _69
 # mahjong.c:1262:         c12 + dx12 * (startY+FIXED_ONE_PX) - dy12 * startX,
	subl	%r13d, %r11d	 # tmp581, _71
 # mahjong.c:1261:         c12 + dx12 * startY - dy12 * (startX+FIXED_ONE_PX),
	movl	%r12d, %r13d	 # _67, _73
	subl	%r15d, %r13d	 # tmp582, _73
 # mahjong.c:1261:         c12 + dx12 * startY - dy12 * (startX+FIXED_ONE_PX),
	addl	%r13d, %ebx	 # _73, _74
	movl	%r13d, 232(%rsp)	 # _73, %sfp
 # mahjong.c:1269:         c20 + dx20 * (startY+FIXED_ONE_PX) - dy20 * (startX+FIXED_ONE_PX)
	movl	%edi, %r13d	 # _55, _55
 # mahjong.c:1259:     i32_vec cy12_vec = init_i32_vec(
	movl	%ebx, %edx	 # _74, tmp583
 # mahjong.c:1269:         c20 + dx20 * (startY+FIXED_ONE_PX) - dy20 * (startX+FIXED_ONE_PX)
	imull	%ebp, %r13d	 # dx20, _55
 # mahjong.c:1259:     i32_vec cy12_vec = init_i32_vec(
	subl	%r8d, %ebx	 # _69, tmp585
	subl	%r11d, %edx	 # _71, tmp583
 # mahjong.c:583:     res[0] = a;
	vmovd	%edx, %xmm27	 # tmp583, res
 # mahjong.c:584:     res[1] = b;
	vpinsrd	$1, %ebx, %xmm27, %xmm27	 #, tmp585, res, res
 # mahjong.c:1259:     i32_vec cy12_vec = init_i32_vec(
	movl	%r10d, %ebx	 # _68, tmp587
	subl	%r8d, %r10d	 # _69, tmp589
 # mahjong.c:1267:         c20 + dx20 * startY - dy20 * (startX+FIXED_ONE_PX),
	movl	%r13d, %r15d	 # _77, _83
 # mahjong.c:1259:     i32_vec cy12_vec = init_i32_vec(
	subl	%r11d, %ebx	 # _71, tmp587
 # mahjong.c:1269:         c20 + dx20 * (startY+FIXED_ONE_PX) - dy20 * (startX+FIXED_ONE_PX)
	leal	0(%r13,%r14), %edx	 #, _78
 # mahjong.c:585:     res[2] = c;
	vpinsrd	$2, %ebx, %xmm27, %xmm27	 #, tmp587, res, res
 # mahjong.c:586:     res[3] = d;
	vpinsrd	$3, %r10d, %xmm27, %xmm27	 #, tmp589, res, cy12_vec
 # mahjong.c:1269:         c20 + dx20 * (startY+FIXED_ONE_PX) - dy20 * (startX+FIXED_ONE_PX)
	movl	136(%rsp), %r10d	 # %sfp, _58
 # mahjong.c:1267:         c20 + dx20 * startY - dy20 * (startX+FIXED_ONE_PX),
	sall	$4, %ebp	 #, tmp592
	subl	%ebp, %r15d	 # tmp592, _83
 # mahjong.c:1269:         c20 + dx20 * (startY+FIXED_ONE_PX) - dy20 * (startX+FIXED_ONE_PX)
	imull	%esi, %r10d	 # dy20, _58
 # mahjong.c:1267:         c20 + dx20 * startY - dy20 * (startX+FIXED_ONE_PX),
	leal	(%r15,%r14), %edi	 #, _84
 # mahjong.c:1268:         c20 + dx20 * (startY+FIXED_ONE_PX) - dy20 * startX,
	sall	$4, %esi	 #, tmp591
	movl	%r10d, %ebx	 # _79, _81
 # mahjong.c:1265:     i32_vec cy20_vec = init_i32_vec(
	movl	%edi, %r14d	 # _84, tmp593
 # mahjong.c:1268:         c20 + dx20 * (startY+FIXED_ONE_PX) - dy20 * startX,
	subl	%esi, %ebx	 # tmp591, _81
 # mahjong.c:1275:         e01 + dx01 * (startY+FIXED_ONE_PX) - dy01 * (startX+FIXED_ONE_PX)
	movl	180(%rsp), %esi	 # %sfp, _56
 # mahjong.c:1265:     i32_vec cy20_vec = init_i32_vec(
	subl	%ebx, %r14d	 # _81, tmp593
	subl	%r10d, %edi	 # _79, tmp595
 # mahjong.c:583:     res[0] = a;
	vmovd	%r14d, %xmm28	 # tmp593, res
 # mahjong.c:1265:     i32_vec cy20_vec = init_i32_vec(
	movl	%edx, %r14d	 # _78, tmp597
	subl	%r10d, %edx	 # _79, tmp599
	subl	%ebx, %r14d	 # _81, tmp597
 # mahjong.c:584:     res[1] = b;
	vpinsrd	$1, %edi, %xmm28, %xmm28	 #, tmp595, res, res
 # mahjong.c:585:     res[2] = c;
	vpinsrd	$2, %r14d, %xmm28, %xmm28	 #, tmp597, res, res
 # mahjong.c:1275:         e01 + dx01 * (startY+FIXED_ONE_PX) - dy01 * (startX+FIXED_ONE_PX)
	movl	140(%rsp), %r14d	 # %sfp, e01
 # mahjong.c:586:     res[3] = d;
	vpinsrd	$3, %edx, %xmm28, %xmm28	 #, tmp599, res, cy20_vec
 # mahjong.c:1275:         e01 + dx01 * (startY+FIXED_ONE_PX) - dy01 * (startX+FIXED_ONE_PX)
	leal	(%rsi,%r14), %edx	 #, _87
 # mahjong.c:1273:         e01 + dx01 * startY - dy01 * (startX+FIXED_ONE_PX),
	movl	184(%rsp), %esi	 # %sfp, _63
	leal	(%rsi,%r14), %edi	 #, _90
 # mahjong.c:1271:     i32_vec ey01_vec = init_i32_vec(
	movl	%edi, %esi	 # _90, tmp601
	subl	%eax, %edi	 # _59, tmp603
	subl	%ecx, %esi	 # _61, tmp601
 # mahjong.c:583:     res[0] = a;
	vmovd	%esi, %xmm29	 # tmp601, res
 # mahjong.c:1271:     i32_vec ey01_vec = init_i32_vec(
	movl	%edx, %esi	 # _87, tmp605
	subl	%eax, %edx	 # _59, tmp607
 # mahjong.c:584:     res[1] = b;
	vpinsrd	$1, %edi, %xmm29, %xmm29	 #, tmp603, res, res
 # mahjong.c:1271:     i32_vec ey01_vec = init_i32_vec(
	subl	%ecx, %esi	 # _61, tmp605
 # mahjong.c:1279:         e12 + dx12 * startY - dy12 * (startX+FIXED_ONE_PX),
	movl	232(%rsp), %edi	 # %sfp, _73
 # mahjong.c:1281:         e12 + dx12 * (startY+FIXED_ONE_PX) - dy12 * (startX+FIXED_ONE_PX)
	movl	144(%rsp), %ecx	 # %sfp, e12
 # mahjong.c:585:     res[2] = c;
	vpinsrd	$2, %esi, %xmm29, %xmm29	 #, tmp605, res, res
 # mahjong.c:586:     res[3] = d;
	vpinsrd	$3, %edx, %xmm29, %xmm29	 #, tmp607, res, ey01_vec
 # mahjong.c:1281:         e12 + dx12 * (startY+FIXED_ONE_PX) - dy12 * (startX+FIXED_ONE_PX)
	leal	(%r12,%rcx), %edx	 #, _93
 # mahjong.c:1279:         e12 + dx12 * startY - dy12 * (startX+FIXED_ONE_PX),
	addl	%edi, %ecx	 # _73, _96
 # mahjong.c:1287:         e20 + dx20 * (startY+FIXED_ONE_PX) - dy20 * (startX+FIXED_ONE_PX)
	movl	160(%rsp), %edi	 # %sfp, e20
 # mahjong.c:1277:     i32_vec ey12_vec = init_i32_vec(
	movl	%ecx, %eax	 # _96, tmp609
	subl	%r8d, %ecx	 # _69, tmp611
	subl	%r11d, %eax	 # _71, tmp609
 # mahjong.c:583:     res[0] = a;
	vmovd	%eax, %xmm30	 # tmp609, res
 # mahjong.c:1277:     i32_vec ey12_vec = init_i32_vec(
	movl	%edx, %eax	 # _93, tmp613
	subl	%r8d, %edx	 # _69, tmp615
	subl	%r11d, %eax	 # _71, tmp613
 # mahjong.c:584:     res[1] = b;
	vpinsrd	$1, %ecx, %xmm30, %xmm30	 #, tmp611, res, res
 # mahjong.c:585:     res[2] = c;
	vpinsrd	$2, %eax, %xmm30, %xmm30	 #, tmp613, res, res
 # mahjong.c:1285:         e20 + dx20 * startY - dy20 * (startX+FIXED_ONE_PX),
	addl	%edi, %r15d	 # e20, _102
 # mahjong.c:1287:         e20 + dx20 * (startY+FIXED_ONE_PX) - dy20 * (startX+FIXED_ONE_PX)
	leal	0(%r13,%rdi), %eax	 #, _99
 # mahjong.c:586:     res[3] = d;
	vpinsrd	$3, %edx, %xmm30, %xmm30	 #, tmp615, res, ey12_vec
 # mahjong.c:1283:     i32_vec ey20_vec = init_i32_vec(
	movl	%r15d, %edx	 # _102, tmp617
	subl	%r10d, %r15d	 # _79, tmp619
	subl	%ebx, %edx	 # _81, tmp617
 # mahjong.c:583:     res[0] = a;
	vmovd	%edx, %xmm31	 # tmp617, res
 # mahjong.c:1283:     i32_vec ey20_vec = init_i32_vec(
	movl	%eax, %edx	 # _99, tmp621
	subl	%r10d, %eax	 # _79, tmp623
	subl	%ebx, %edx	 # _81, tmp621
 # mahjong.c:1293:     for (i32 y = miny; y < maxy; y += 2)
	movl	248(%rsp), %ebx	 # %sfp, maxy
 # mahjong.c:584:     res[1] = b;
	vpinsrd	$1, %r15d, %xmm31, %xmm31	 #, tmp619, res, res
 # mahjong.c:585:     res[2] = c;
	vpinsrd	$2, %edx, %xmm31, %xmm31	 #, tmp621, res, res
 # mahjong.c:586:     res[3] = d;
	vpinsrd	$3, %eax, %xmm31, %xmm31	 #, tmp623, res, ey20_vec
 # mahjong.c:1293:     for (i32 y = miny; y < maxy; y += 2)
	cmpl	%ebx, %r9d	 # maxy, miny
	jge	.L546	 #,
 # mahjong.c:1308:         int in_tile_x = minx-start_x;
	movl	176(%rsp), %esi	 # %sfp, minx
 # mahjong.c:1312:         for (i32 x = 0; x < (maxx-minx); x += 2) {
	movl	252(%rsp), %ebp	 # %sfp, maxx
	movl	%r9d, %edi	 # miny, ivtmp.1046
	subl	608(%rsp), %edi	 # start_y, ivtmp.1046
 # mahjong.c:1350:                     f32_vec z_vec = 1.0f / inv_z_vec;
	vbroadcastss	.LC17(%rip), %xmm8	 #, tmp760
 # mahjong.c:1352:                     i32_vec this_tri_color_vec = parallel_pixel_shader(
	movq	568(%rsp), %r14	 # zbuffer, zbuffer
	vmovss	%xmm4, 252(%rsp)	 # recip_area, %sfp
	vmovaps	%xmm12, %xmm4	 # res, res
 # mahjong.c:1168:     int drew_pixel = 0;
	xorl	%r8d, %r8d	 # <retval>
 # mahjong.c:1352:                     i32_vec this_tri_color_vec = parallel_pixel_shader(
	vmovaps	%xmm11, %xmm12	 # res, res
	leaq	render_target(%rip), %r12	 #, tmp698
	vmovaps	%xmm10, %xmm11	 # res, res
	vmovaps	%xmm17, %xmm23	 # v0v_over_z, v0v_over_z
	vmovaps	%xmm9, %xmm10	 # res, res
	vmovss	%xmm16, 248(%rsp)	 # v1u_over_z, %sfp
	vmovdqa	%xmm7, %xmm9	 # cy01_vec, cy01_vec
	vmovdqa	%xmm15, %xmm7	 # res, res
	vmovdqa	%xmm14, %xmm15	 # res, res
 # mahjong.c:1308:         int in_tile_x = minx-start_x;
	movl	%esi, %eax	 # minx, in_tile_x
	subl	592(%rsp), %eax	 # start_x, in_tile_x
 # mahjong.c:1312:         for (i32 x = 0; x < (maxx-minx); x += 2) {
	subl	%esi, %ebp	 # minx, maxx
 # mahjong.c:1352:                     i32_vec this_tri_color_vec = parallel_pixel_shader(
	vmovdqa	%xmm13, %xmm14	 # res, res
	vmovaps	%xmm4, %xmm13	 # res, res
	movl	%ebp, 180(%rsp)	 # _432, %sfp
 # mahjong.c:1309:         int tile_idx = (in_tile_y&~1)*RENDER_TILE_SIZE + ((in_tile_x&~1)<<1);
	addl	%eax, %eax	 # tmp626
	andl	$-4, %eax	 #, tmp626
	movl	%eax, %r15d	 # tmp626, _108
	movl	%ebx, %eax	 # maxy, maxy
	decl	%eax	 # maxy
 # mahjong.c:1352:                     i32_vec this_tri_color_vec = parallel_pixel_shader(
	movl	%r15d, 176(%rsp)	 # _108, %sfp
	subl	%r9d, %eax	 # miny, tmp628
	andl	$-2, %eax	 #, tmp629
	leal	2(%rdi,%rax), %esi	 #, _704
	leal	-1(%rbp), %eax	 #, tmp633
	shrl	%eax	 # tmp634
	incl	%eax	 # tmp636
	leaq	0(,%rax,4), %r13	 #, _684
	leaq	256(%rsp), %rax	 #, tmp761
	movq	%rax, 232(%rsp)	 # tmp761, %sfp
	leaq	272(%rsp), %rax	 #, tmp762
	movq	%r13, 184(%rsp)	 # _684, %sfp
	movq	%rax, 240(%rsp)	 # tmp762, %sfp
	.p2align 4
	.p2align 3
.L540:
 # mahjong.c:1309:         int tile_idx = (in_tile_y&~1)*RENDER_TILE_SIZE + ((in_tile_x&~1)<<1);
	movl	176(%rsp), %ebx	 # %sfp, _108
 # mahjong.c:1309:         int tile_idx = (in_tile_y&~1)*RENDER_TILE_SIZE + ((in_tile_x&~1)<<1);
	movl	%edi, %eax	 # ivtmp.1046, tmp637
	andl	$-2, %eax	 #, tmp637
 # mahjong.c:1309:         int tile_idx = (in_tile_y&~1)*RENDER_TILE_SIZE + ((in_tile_x&~1)<<1);
	sall	$6, %eax	 #, tmp638
 # mahjong.c:1309:         int tile_idx = (in_tile_y&~1)*RENDER_TILE_SIZE + ((in_tile_x&~1)<<1);
	addl	%ebx, %eax	 # _108, tile_idx
	cltq
 # mahjong.c:1310:         u32 *col_val_ptr = __builtin_assume_aligned(&render_target[tile_idx], 4);
	leaq	(%r12,%rax), %r11	 #, col_val_ptr
 # mahjong.c:1311:         f32_vec *zbuf_ptr = __builtin_assume_aligned(&zbuffer[tile_idx], 16);
	leaq	(%r14,%rax,4), %rbx	 #, zbuf_ptr
 # mahjong.c:1312:         for (i32 x = 0; x < (maxx-minx); x += 2) {
	movl	180(%rsp), %eax	 # %sfp,
	testl	%eax, %eax	 #
	jle	.L521	 #,
	movq	184(%rsp), %rax	 # %sfp, _684
 # mahjong.c:1295:         i32_vec cx01_vec = cy01_vec;
	vmovdqa	%xmm15, %xmm4	 # res, res
 # mahjong.c:1300:         i32_vec ex20_vec = ey20_vec;
	vmovdqa32	%xmm31, %xmm22	 # ey20_vec, ex20_vec
 # mahjong.c:1295:         i32_vec cx01_vec = cy01_vec;
	movl	%edi, 136(%rsp)	 # ivtmp.1046, %sfp
	vmovdqa	%xmm14, %xmm15	 # res, res
 # mahjong.c:1299:         i32_vec ex12_vec = ey12_vec;
	vmovdqa32	%xmm30, %xmm21	 # ey12_vec, ex12_vec
 # mahjong.c:1298:         i32_vec ex01_vec = ey01_vec;
	vmovdqa32	%xmm29, %xmm20	 # ey01_vec, ex01_vec
 # mahjong.c:1297:         i32_vec cx20_vec = cy20_vec;
	vmovdqa32	%xmm28, %xmm19	 # cy20_vec, cx20_vec
 # mahjong.c:1296:         i32_vec cx12_vec = cy12_vec;
	vmovdqa32	%xmm27, %xmm18	 # cy12_vec, cx12_vec
 # mahjong.c:1295:         i32_vec cx01_vec = cy01_vec;
	vmovdqa	%xmm9, %xmm6	 # cy01_vec, cx01_vec
	vmovdqa	%xmm9, %xmm14	 # cy01_vec, cy01_vec
	vmovdqa	%xmm7, %xmm5	 # res, res
	leaq	(%r11,%rax), %rbp	 #, _685
	jmp	.L539	 #
	.p2align 4
	.p2align 3
.L522:
 # mahjong.c:1383:             col_val_ptr++;
	addq	$4, %r11	 #, col_val_ptr
 # mahjong.c:1377:             cx01_vec -= dy01_shifted_vec;
	vpsubd	%xmm24, %xmm6, %xmm6	 # res, cx01_vec, cx01_vec
 # mahjong.c:1378:             cx12_vec -= dy12_shifted_vec;
	vpsubd	%xmm26, %xmm18, %xmm18	 # res, cx12_vec, cx12_vec
 # mahjong.c:1379:             cx20_vec -= dy20_shifted_vec;
	vpsubd	%xmm25, %xmm19, %xmm19	 # res, cx20_vec, cx20_vec
 # mahjong.c:1380:             ex01_vec -= dy01_shifted_vec;
	vpsubd	%xmm24, %xmm20, %xmm20	 # res, ex01_vec, ex01_vec
 # mahjong.c:1381:             ex12_vec -= dy12_shifted_vec;
	vpsubd	%xmm26, %xmm21, %xmm21	 # res, ex12_vec, ex12_vec
 # mahjong.c:1382:             ex20_vec -= dy20_shifted_vec;
	vpsubd	%xmm25, %xmm22, %xmm22	 # res, ex20_vec, ex20_vec
 # mahjong.c:1384:             zbuf_ptr++;
	addq	$16, %rbx	 #, zbuf_ptr
 # mahjong.c:1312:         for (i32 x = 0; x < (maxx-minx); x += 2) {
	cmpq	%rbp, %r11	 # _685, col_val_ptr
	je	.L578	 #,
.L539:
 # mahjong.c:1314:             i32_vec covered_vec = ~((cx01_vec|cx12_vec|cx20_vec)>>31);
	vmovdqa32	%xmm19, %xmm0	 # cx20_vec, tmp643
	vpternlogd	$254, %xmm6, %xmm18, %xmm0	 #, cx01_vec, cx12_vec, tmp643
 # mahjong.c:1314:             i32_vec covered_vec = ~((cx01_vec|cx12_vec|cx20_vec)>>31);
	vpsrad	$31, %xmm0, %xmm0	 #, tmp643, tmp644
 # mahjong.c:1314:             i32_vec covered_vec = ~((cx01_vec|cx12_vec|cx20_vec)>>31);
	vpternlogd	$0x55, %xmm0, %xmm0, %xmm0	 # tmp644, covered_vec
 # mahjong.c:620:         res |= (u8)((a[i]&1)<<i);
	vpextrd	$2, %xmm0, %eax	 #, covered_vec, tmp648
	sall	$2, %eax	 #, tmp649
	vpextrd	$1, %xmm0, %ecx	 #, covered_vec, tmp645
	vpextrd	$3, %xmm0, %edx	 #, covered_vec, tmp652
	addl	%ecx, %ecx	 # tmp646
	andl	$4, %eax	 #, tmp650
	sall	$3, %edx	 #, tmp653
	andl	$2, %ecx	 #, tmp647
	andl	$8, %edx	 #, tmp654
 # mahjong.c:620:         res |= (u8)((a[i]&1)<<i);
	orl	%eax, %ecx	 # tmp650, tmp651
 # mahjong.c:620:         res |= (u8)((a[i]&1)<<i);
	vmovd	%xmm0, %eax	 # covered_vec, tmp655
	andl	$1, %eax	 #, tmp656
 # mahjong.c:620:         res |= (u8)((a[i]&1)<<i);
	orl	%edx, %eax	 # tmp654, tmp657
 # mahjong.c:1320:             if(coverage_mask != 0x0) {
	orb	%cl, %al	 # tmp651, tmp785
	je	.L522	 #,
 # mahjong.c:577:     for(int i = 0; i < 4; i++) { res[i] = (f32)a[i]; }
	vcvtdq2ps	%xmm22, %xmm3	 # ex20_vec, vect__586.1029
	vcvtdq2ps	%xmm21, %xmm16	 # ex12_vec, vect__610.1028
 # mahjong.c:1322:                 f32_vec zbuf_val_vec = *zbuf_ptr;
	vmovups	(%rbx), %xmm9	 # MEM[(f32_vec *)zbuf_ptr_798], zbuf_val_vec
 # mahjong.c:577:     for(int i = 0; i < 4; i++) { res[i] = (f32)a[i]; }
	vcvtdq2ps	%xmm20, %xmm2	 # ex01_vec, vect__562.1030
 # mahjong.c:1331:                 f32_vec inv_z_vec = ((w0_vec * iz0_vec) + 
	vmulps	%xmm13, %xmm16, %xmm7	 # res, vect__610.1028, tmp659
 # mahjong.c:1332:                                     (w1_vec * iz1_vec) +
	vmulps	%xmm3, %xmm11, %xmm1	 # vect__586.1029, res, tmp660
 # mahjong.c:1331:                 f32_vec inv_z_vec = ((w0_vec * iz0_vec) + 
	vaddps	%xmm1, %xmm7, %xmm1	 # tmp660, tmp659, tmp661
 # mahjong.c:1333:                                     (w2_vec * iz2_vec));
	vmulps	%xmm2, %xmm12, %xmm7	 # vect__562.1030, res, tmp662
 # mahjong.c:1331:                 f32_vec inv_z_vec = ((w0_vec * iz0_vec) + 
	vaddps	%xmm7, %xmm1, %xmm7	 # tmp662, tmp661, inv_z_vec
 # mahjong.c:1334:                 inv_z_vec = (inv_z_vec * recip_area_vec);
	vmulps	%xmm10, %xmm7, %xmm7	 # res, inv_z_vec, inv_z_vec
 # mahjong.c:1337:                 i32_vec in_tri_and_unoccluded = unoccluded & covered_vec;
	vcmpleps	%xmm7, %xmm9, %xmm1	 #, inv_z_vec, zbuf_val_vec, tmp664
	vpand	%xmm1, %xmm0, %xmm0	 # tmp664, covered_vec, in_tri_and_unoccluded
	vpextrd	$1, %xmm0, %r13d	 #, in_tri_and_unoccluded, _861
	vpextrd	$2, %xmm0, %edi	 #, in_tri_and_unoccluded, _864
 # mahjong.c:620:         res |= (u8)((a[i]&1)<<i);
	leal	(%r13,%r13), %edx	 #, tmp665
	leal	0(,%rdi,4), %eax	 #, tmp667
	andl	$4, %eax	 #, tmp668
	andl	$2, %edx	 #, tmp666
	vmovd	%xmm0, %r15d	 # in_tri_and_unoccluded, _859
	vpextrd	$3, %xmm0, %r10d	 #, in_tri_and_unoccluded, _867
 # mahjong.c:620:         res |= (u8)((a[i]&1)<<i);
	orl	%eax, %edx	 # tmp668, tmp669
 # mahjong.c:620:         res |= (u8)((a[i]&1)<<i);
	movl	%r15d, %ecx	 # _859, tmp672
 # mahjong.c:620:         res |= (u8)((a[i]&1)<<i);
	leal	0(,%r10,8), %eax	 #, tmp670
	andl	$8, %eax	 #, tmp671
 # mahjong.c:620:         res |= (u8)((a[i]&1)<<i);
	andl	$1, %ecx	 #, tmp672
 # mahjong.c:620:         res |= (u8)((a[i]&1)<<i);
	orl	%ecx, %eax	 # tmp672, tmp673
 # mahjong.c:1340:                 if(mask != 0) {
	orb	%dl, %al	 # tmp669, tmp786
	je	.L522	 #,
 # mahjong.c:1342:                     u32 cbuf_val = *col_val_ptr;
	movl	(%r11), %eax	 # MEM[(u32 *)col_val_ptr_794], cbuf_val
	vmovdqu	%xmm5, 160(%rsp)	 # res, %sfp
 # mahjong.c:1352:                     i32_vec this_tri_color_vec = parallel_pixel_shader(
	vmovss	252(%rsp), %xmm5	 # %sfp, recip_area
 # mahjong.c:1350:                     f32_vec z_vec = 1.0f / inv_z_vec;
	vdivps	%xmm7, %xmm8, %xmm0	 # inv_z_vec, tmp760, z_vec
	vmovdqu	%xmm4, 144(%rsp)	 # res, %sfp
 # mahjong.c:1352:                     i32_vec this_tri_color_vec = parallel_pixel_shader(
	vmovss	204(%rsp), %xmm4	 # %sfp, v2v_over_z
	movq	232(%rsp), %r9	 # %sfp,
	movq	240(%rsp), %r8	 # %sfp,
	leaq	288(%rsp), %rdx	 #, tmp680
	leaq	304(%rsp), %rcx	 #, tmp681
	vmovups	%xmm2, 256(%rsp)	 # vect__562.1030,
	vmovss	192(%rsp), %xmm2	 # %sfp, v0u_over_z
	vmovups	%xmm16, 288(%rsp)	 # vect__610.1028,
 # mahjong.c:1342:                     u32 cbuf_val = *col_val_ptr;
	movl	%eax, 140(%rsp)	 # cbuf_val, %sfp
 # mahjong.c:1352:                     i32_vec this_tri_color_vec = parallel_pixel_shader(
	movq	224(%rsp), %rax	 # %sfp, prephitmp_412
	vmovups	%xmm3, 272(%rsp)	 # vect__586.1029,
	vmovss	%xmm5, 80(%rsp)	 # recip_area,
	vmovss	200(%rsp), %xmm5	 # %sfp, v2u_over_z
	vmovss	%xmm4, 72(%rsp)	 # v2v_over_z,
	vmovss	196(%rsp), %xmm4	 # %sfp, v1v_over_z
	vmovss	%xmm23, 40(%rsp)	 # v0v_over_z,
	vmovss	%xmm2, 32(%rsp)	 # v0u_over_z,
	movq	%rax, 112(%rsp)	 # prephitmp_412,
	movl	212(%rsp), %eax	 # %sfp, tex_height
	vmovups	%xmm0, 304(%rsp)	 # z_vec,
	vmovss	%xmm5, 64(%rsp)	 # v2u_over_z,
	vmovss	248(%rsp), %xmm5	 # %sfp, v1u_over_z
	vmovss	%xmm4, 56(%rsp)	 # v1v_over_z,
	movl	%eax, 104(%rsp)	 # tex_height,
	movl	208(%rsp), %eax	 # %sfp, tex_width
	vmovss	%xmm5, 48(%rsp)	 # v1u_over_z,
	movl	%eax, 96(%rsp)	 # tex_width,
	movq	216(%rsp), %rax	 # %sfp, texels
	movq	%rax, 88(%rsp)	 # texels,
	call	parallel_pixel_shader	 #
 # mahjong.c:1343:                     i32_vec cbuf_val_vec = init_i32_vec(
	movl	140(%rsp), %eax	 # %sfp, cbuf_val
	testl	%r15d, %r15d	 # _859
	vmovd	%xmm0, %r8d	 # this_tri_color_vec, tmp682
 # mahjong.c:564:         res[i] = mask[i] ? a[i] : b[i];
	vmovdqu	144(%rsp), %xmm4	 # %sfp, res
	vmovdqu	160(%rsp), %xmm5	 # %sfp, res
 # mahjong.c:1343:                     i32_vec cbuf_val_vec = init_i32_vec(
	movzbl	%r8b, %r8d	 # tmp682, tmp701
	movzbl	%al, %edx	 # cbuf_val, cbuf_val
	movzbl	%ah, %ecx	 # cbuf_val, tmp713
	movl	%eax, %r9d	 # cbuf_val, tmp684
	cmove	%edx, %r8d	 # tmp701,, cbuf_val, _127
	testl	%r13d, %r13d	 # _861
	vpextrd	$1, %xmm0, %edx	 #, this_tri_color_vec, tmp712
	cmove	%ecx, %edx	 # tmp712,, tmp713, _126
	vpextrd	$2, %xmm0, %ecx	 #, this_tri_color_vec, tmp702
	shrl	$16, %r9d	 #, tmp684
	testl	%edi, %edi	 # _864
	movzbl	%r9b, %r9d	 # tmp684, tmp703
	cmove	%r9d, %ecx	 # tmp702,, tmp703, _124
 # mahjong.c:1347:                         (i32)(cbuf_val>>24)
	shrl	$24, %eax	 #, cbuf_val
	testl	%r10d, %r10d	 # _867
	movl	%eax, %r9d	 # cbuf_val, tmp731
	vpextrd	$3, %xmm0, %eax	 #, this_tri_color_vec, tmp730
	vmovaps	%xmm7, %xmm0	 # inv_z_vec, iftmp.42_468
	cmove	%r9d, %eax	 # tmp730,, tmp731, _122
 # mahjong.c:1364:                         ((new_color_vec[2]&0xFF)<<16) |
	sall	$16, %ecx	 #, tmp685
 # mahjong.c:1363:                         ((new_color_vec[1]&0xFF)<<8) |
	sall	$8, %edx	 #, tmp689
 # mahjong.c:1365:                         ((new_color_vec[3]&0xFF)<<24)
	sall	$24, %eax	 #, tmp687
 # mahjong.c:1364:                         ((new_color_vec[2]&0xFF)<<16) |
	andl	$16711680, %ecx	 #, tmp686
 # mahjong.c:1363:                         ((new_color_vec[1]&0xFF)<<8) |
	movzwl	%dx, %edx	 # tmp689, tmp690
 # mahjong.c:1364:                         ((new_color_vec[2]&0xFF)<<16) |
	orl	%ecx, %eax	 # tmp686, tmp688
	orl	%r8d, %edx	 # _127, tmp691
	orl	%edx, %eax	 # tmp691, tmp692
 # mahjong.c:564:         res[i] = mask[i] ? a[i] : b[i];
	testl	%r15d, %r15d	 # _859
 # mahjong.c:1364:                         ((new_color_vec[2]&0xFF)<<16) |
	movl	%eax, (%r11)	 # tmp692, MEM[(u32 *)col_val_ptr_794]
 # mahjong.c:564:         res[i] = mask[i] ? a[i] : b[i];
	jne	.L532	 #,
	vmovaps	%xmm9, %xmm0	 # zbuf_val_vec, iftmp.42_468
.L532:
	vshufps	$85, %xmm7, %xmm7, %xmm1	 #, inv_z_vec, inv_z_vec, iftmp.42_476
 # mahjong.c:564:         res[i] = mask[i] ? a[i] : b[i];
	vinsertps	$0xe, %xmm0, %xmm0, %xmm0	 # iftmp.42_468, res
 # mahjong.c:564:         res[i] = mask[i] ? a[i] : b[i];
	testl	%r13d, %r13d	 # _861
	jne	.L534	 #,
	vshufps	$85, %xmm9, %xmm9, %xmm1	 #, zbuf_val_vec, zbuf_val_vec, iftmp.42_476
.L534:
 # mahjong.c:564:         res[i] = mask[i] ? a[i] : b[i];
	vinsertps	$16, %xmm1, %xmm0, %xmm0	 #, iftmp.42_476, res, res
	vunpckhps	%xmm7, %xmm7, %xmm1	 # inv_z_vec, inv_z_vec, iftmp.42_484
 # mahjong.c:564:         res[i] = mask[i] ? a[i] : b[i];
	testl	%edi, %edi	 # _864
	jne	.L536	 #,
	vunpckhps	%xmm9, %xmm9, %xmm1	 # zbuf_val_vec, zbuf_val_vec, iftmp.42_484
.L536:
 # mahjong.c:564:         res[i] = mask[i] ? a[i] : b[i];
	vinsertps	$32, %xmm1, %xmm0, %xmm0	 #, iftmp.42_484, res, res
	vshufps	$255, %xmm7, %xmm7, %xmm7	 #, inv_z_vec, inv_z_vec, iftmp.42_492
 # mahjong.c:564:         res[i] = mask[i] ? a[i] : b[i];
	testl	%r10d, %r10d	 # _867
	jne	.L538	 #,
	vshufps	$255, %xmm9, %xmm9, %xmm7	 #, zbuf_val_vec, zbuf_val_vec, iftmp.42_492
.L538:
 # mahjong.c:564:         res[i] = mask[i] ? a[i] : b[i];
	vinsertps	$48, %xmm7, %xmm0, %xmm0	 #, iftmp.42_492, res, res
 # mahjong.c:1341:                     drew_pixel = 1;
	movl	$1, %r8d	 #, <retval>
 # mahjong.c:1371:                     *zbuf_ptr = new_zbuf_vec;
	vmovups	%xmm0, (%rbx)	 # res, MEM[(f32_vec *)zbuf_ptr_798]
	jmp	.L522	 #
.L577:
 # mahjong.c:1163:     u8 quantized_brightness = (u8)(diffuse * (NUM_SHADES-1));
	vmulss	.LC26(%rip), %xmm0, %xmm0	 #, avg_c, tmp477
 # mahjong.c:1163:     u8 quantized_brightness = (u8)(diffuse * (NUM_SHADES-1));
	vcvttss2sil	%xmm0, %edx	 # tmp477, tmp481
 # mahjong.c:1164:     u8* lit_pal_ptr = light_remap_table[quantized_brightness];
	movzbl	%dl, %edx	 # tmp481, tmp482
	leaq	(%rdx,%rdx,2), %rcx	 #, tmp485
	leaq	light_remap_table(%rip), %rdx	 #, tmp487
	leaq	(%rdx,%rcx,2), %rsi	 #, prephitmp_412
	movq	%rsi, 224(%rsp)	 # prephitmp_412, %sfp
	jmp	.L511	 #
	.p2align 4
	.p2align 3
.L578:
	movl	136(%rsp), %edi	 # %sfp, ivtmp.1046
	vmovdqa	%xmm14, %xmm9	 # cy01_vec, cy01_vec
	vmovdqa	%xmm5, %xmm7	 # res, res
	vmovdqa	%xmm15, %xmm14	 # res, res
	vmovdqa	%xmm4, %xmm15	 # res, res
.L521:
 # mahjong.c:1293:     for (i32 y = miny; y < maxy; y += 2)
	addl	$2, %edi	 #, ivtmp.1046
 # mahjong.c:1389:         cy01_vec += dx01_shifted_vec;
	vpaddd	%xmm7, %xmm9, %xmm9	 # res, cy01_vec, cy01_vec
 # mahjong.c:1390:         cy12_vec += dx12_shifted_vec;
	vpaddd	%xmm15, %xmm27, %xmm27	 # res, cy12_vec, cy12_vec
 # mahjong.c:1391:         cy20_vec += dx20_shifted_vec;
	vpaddd	%xmm14, %xmm28, %xmm28	 # res, cy20_vec, cy20_vec
 # mahjong.c:1392:         ey01_vec += dx01_shifted_vec;
	vpaddd	%xmm7, %xmm29, %xmm29	 # res, ey01_vec, ey01_vec
 # mahjong.c:1393:         ey12_vec += dx12_shifted_vec;
	vpaddd	%xmm15, %xmm30, %xmm30	 # res, ey12_vec, ey12_vec
 # mahjong.c:1394:         ey20_vec += dx20_shifted_vec;
	vpaddd	%xmm14, %xmm31, %xmm31	 # res, ey20_vec, ey20_vec
 # mahjong.c:1293:     for (i32 y = miny; y < maxy; y += 2)
	cmpl	%esi, %edi	 # _704, ivtmp.1046
	jne	.L540	 #,
.L510:
 # mahjong.c:1397: }
	vmovups	320(%rsp), %xmm6	 #,
	vmovups	336(%rsp), %xmm7	 #,
	vmovups	352(%rsp), %xmm8	 #,
	movl	%r8d, %eax	 # <retval>,
	vmovups	368(%rsp), %xmm9	 #,
	vmovups	384(%rsp), %xmm10	 #,
	vmovups	400(%rsp), %xmm11	 #,
	vmovups	416(%rsp), %xmm12	 #,
	vmovups	432(%rsp), %xmm13	 #,
	vmovups	448(%rsp), %xmm14	 #,
	vmovups	464(%rsp), %xmm15	 #,
	addq	$488, %rsp	 #,
	popq	%rbx	 #
	popq	%rsi	 #
	popq	%rdi	 #
	popq	%rbp	 #
	popq	%r12	 #
	popq	%r13	 #
	popq	%r14	 #
	popq	%r15	 #
	ret	
.L575:
	leaq	light_remap_table(%rip), %rsi	 #, prephitmp_412
	vmovss	.LC17(%rip), %xmm4	 #, tmp699
	movq	%rsi, 224(%rsp)	 # prephitmp_412, %sfp
	jmp	.L511	 #
.L545:
 # mahjong.c:1235:     i32 c20 = e20;
	movl	160(%rsp), %eax	 # %sfp, e20
	movl	%eax, 240(%rsp)	 # e20, %sfp
	jmp	.L519	 #
.L543:
 # mahjong.c:1233:     i32 c01 = e01;
	movl	140(%rsp), %r10d	 # %sfp, c01
	jmp	.L515	 #
.L544:
 # mahjong.c:1234:     i32 c12 = e12;
	movl	144(%rsp), %ebx	 # %sfp, c12
	jmp	.L517	 #
.L546:
 # mahjong.c:1168:     int drew_pixel = 0;
	xorl	%r8d, %r8d	 # <retval>
 # mahjong.c:1396:     return drew_pixel;
	jmp	.L510	 #
	.seh_endproc
	.p2align 4
	.globl	orbit_camera_position
	.def	orbit_camera_position;	.scl	2;	.type	32;	.endef
	.seh_proc	orbit_camera_position
orbit_camera_position:
	subq	$24, %rsp	 #,
	.seh_stackalloc	24
	vmovups	%xmm6, (%rsp)	 #,
	.seh_savexmm	%xmm6, 0
	.seh_endprologue
 # mahjong.c:63:     while (x > M_PI)
	vmovsd	.LC1(%rip), %xmm16	 #, tmp339
	vmovsd	.LC2(%rip), %xmm0	 #, tmp340
 # mahjong.c:96:     return (f32)cos((double)x);
	vcvtss2sd	%xmm2, %xmm2, %xmm2	 # tmp349, _21
 # mahjong.c:1413: {
	movq	%rcx, %rax	 # tmp347, .result_ptr
	vmovsldup	%xmm3, %xmm6	 # radius, _374
 # mahjong.c:63:     while (x > M_PI)
	vmovsd	%xmm2, %xmm2, %xmm4	 # _21, x
	vcomisd	%xmm16, %xmm2	 # tmp339, _21
	jbe	.L654	 #,
	.p2align 4
	.p2align 3
.L582:
 # mahjong.c:64:         x -= 2.0 * M_PI;
	vsubsd	%xmm0, %xmm4, %xmm4	 # tmp340, x, x
 # mahjong.c:63:     while (x > M_PI)
	vcomisd	%xmm16, %xmm4	 # tmp339, x
	ja	.L582	 #,
.L583:
 # mahjong.c:71:     if (x > M_PI / 2)
	vmovsd	.LC4(%rip), %xmm21	 #, tmp342
	vcomisd	%xmm21, %xmm4	 # tmp342, x
	jbe	.L655	 #,
 # mahjong.c:73:         x = M_PI - x;
	vsubsd	%xmm4, %xmm16, %xmm4	 # x, tmp339, x
.L588:
 # mahjong.c:83:         1.0 - (x*x/2.0) *
	vmulsd	%xmm4, %xmm4, %xmm4	 # x, x, _173
 # mahjong.c:85:         (1.0 - (x*x/30.0)));
	vmovsd	.LC7(%rip), %xmm18	 #, tmp344
 # mahjong.c:85:         (1.0 - (x*x/30.0)));
	vmovsd	.LC6(%rip), %xmm17	 #, tmp343
 # mahjong.c:84:         (1.0 - (x*x/12.0) *
	vmovsd	.LC8(%rip), %xmm20	 #, tmp345
 # mahjong.c:85:         (1.0 - (x*x/30.0)));
	vdivsd	%xmm17, %xmm4, %xmm0	 # tmp343, _173, tmp311
 # mahjong.c:84:         (1.0 - (x*x/12.0) *
	vdivsd	%xmm20, %xmm4, %xmm5	 # tmp345, _173, tmp315
 # mahjong.c:85:         (1.0 - (x*x/30.0)));
	vsubsd	%xmm0, %xmm18, %xmm0	 # tmp311, tmp344, tmp313
 # mahjong.c:83:         1.0 - (x*x/2.0) *
	vmovsd	.LC9(%rip), %xmm19	 #, tmp346
 # mahjong.c:84:         (1.0 - (x*x/12.0) *
	vmulsd	%xmm5, %xmm0, %xmm0	 # tmp315, tmp313, tmp317
 # mahjong.c:83:         1.0 - (x*x/2.0) *
	vmulsd	%xmm19, %xmm4, %xmm4	 # tmp346, _173, tmp320
 # mahjong.c:84:         (1.0 - (x*x/12.0) *
	vsubsd	%xmm0, %xmm18, %xmm0	 # tmp317, tmp344, tmp318
 # mahjong.c:83:         1.0 - (x*x/2.0) *
	vmulsd	%xmm4, %xmm0, %xmm4	 # tmp320, tmp318, tmp322
 # mahjong.c:82:     double result =
	vsubsd	%xmm4, %xmm18, %xmm4	 # tmp322, tmp344, result
 # mahjong.c:87:     return negate ? -result : result;
	vxorpd	.LC10(%rip), %xmm4, %xmm4	 #, result, iftmp.0_103
.L627:
 # mahjong.c:92:     return cos(x-M_PI_2);
	vsubsd	%xmm21, %xmm2, %xmm2	 # tmp342, _21, x
 # mahjong.c:96:     return (f32)cos((double)x);
	vcvtsd2ss	%xmm4, %xmm4, %xmm4	 # iftmp.0_103, _23
	vmovsd	.LC2(%rip), %xmm0	 #, tmp340
 # mahjong.c:63:     while (x > M_PI)
	vcomisd	%xmm16, %xmm2	 # tmp339, x
	jbe	.L657	 #,
	.p2align 4
	.p2align 3
.L593:
 # mahjong.c:64:         x -= 2.0 * M_PI;
	vsubsd	%xmm0, %xmm2, %xmm2	 # tmp340, x, x
 # mahjong.c:63:     while (x > M_PI)
	vcomisd	%xmm16, %xmm2	 # tmp339, x
	ja	.L593	 #,
.L594:
 # mahjong.c:71:     if (x > M_PI / 2)
	vcomisd	%xmm21, %xmm2	 # tmp342, x
	jbe	.L658	 #,
	.p2align 4
	.p2align 3
.L669:
 # mahjong.c:73:         x = M_PI - x;
	vsubsd	%xmm2, %xmm16, %xmm2	 # x, tmp339, x
.L599:
 # mahjong.c:83:         1.0 - (x*x/2.0) *
	vmulsd	%xmm2, %xmm2, %xmm2	 # x, x, _151
 # mahjong.c:85:         (1.0 - (x*x/30.0)));
	vdivsd	%xmm17, %xmm2, %xmm22	 # tmp343, _151, tmp283
 # mahjong.c:84:         (1.0 - (x*x/12.0) *
	vdivsd	%xmm20, %xmm2, %xmm0	 # tmp345, _151, tmp287
 # mahjong.c:85:         (1.0 - (x*x/30.0)));
	vsubsd	%xmm22, %xmm18, %xmm22	 # tmp283, tmp344, tmp285
 # mahjong.c:83:         1.0 - (x*x/2.0) *
	vmulsd	%xmm19, %xmm2, %xmm2	 # tmp346, _151, tmp292
 # mahjong.c:84:         (1.0 - (x*x/12.0) *
	vmulsd	%xmm0, %xmm22, %xmm22	 # tmp287, tmp285, tmp289
 # mahjong.c:84:         (1.0 - (x*x/12.0) *
	vsubsd	%xmm22, %xmm18, %xmm22	 # tmp289, tmp344, tmp290
 # mahjong.c:83:         1.0 - (x*x/2.0) *
	vmulsd	%xmm2, %xmm22, %xmm22	 # tmp292, tmp290, tmp294
 # mahjong.c:82:     double result =
	vsubsd	%xmm22, %xmm18, %xmm22	 # tmp294, tmp344, result
 # mahjong.c:87:     return negate ? -result : result;
	vxorpd	.LC10(%rip), %xmm22, %xmm22	 #, result, iftmp.0_83
.L626:
 # mahjong.c:96:     return (f32)cos((double)x);
	vcvtss2sd	%xmm1, %xmm1, %xmm1	 # yaw, _15
 # mahjong.c:100:     return (f32)sin((double)x);
	vcvtsd2ss	%xmm22, %xmm22, %xmm22	 # iftmp.0_83, _20
 # mahjong.c:63:     while (x > M_PI)
	vmovsd	%xmm1, %xmm1, %xmm2	 # _15, x
	vmovsd	.LC2(%rip), %xmm0	 #, tmp340
	vcomisd	%xmm16, %xmm1	 # tmp339, _15
	jbe	.L660	 #,
	.p2align 4
	.p2align 3
.L604:
 # mahjong.c:64:         x -= 2.0 * M_PI;
	vsubsd	%xmm0, %xmm2, %xmm2	 # tmp340, x, x
 # mahjong.c:63:     while (x > M_PI)
	vcomisd	%xmm16, %xmm2	 # tmp339, x
	ja	.L604	 #,
.L605:
 # mahjong.c:71:     if (x > M_PI / 2)
	vcomisd	%xmm21, %xmm2	 # tmp342, x
	jbe	.L661	 #,
	.p2align 4
	.p2align 3
.L668:
 # mahjong.c:73:         x = M_PI - x;
	vsubsd	%xmm2, %xmm16, %xmm2	 # x, tmp339, x
.L610:
 # mahjong.c:83:         1.0 - (x*x/2.0) *
	vmulsd	%xmm2, %xmm2, %xmm2	 # x, x, _129
 # mahjong.c:85:         (1.0 - (x*x/30.0)));
	vdivsd	%xmm17, %xmm2, %xmm0	 # tmp343, _129, tmp255
 # mahjong.c:84:         (1.0 - (x*x/12.0) *
	vdivsd	%xmm20, %xmm2, %xmm5	 # tmp345, _129, tmp259
 # mahjong.c:85:         (1.0 - (x*x/30.0)));
	vsubsd	%xmm0, %xmm18, %xmm0	 # tmp255, tmp344, tmp257
 # mahjong.c:83:         1.0 - (x*x/2.0) *
	vmulsd	%xmm19, %xmm2, %xmm2	 # tmp346, _129, tmp264
 # mahjong.c:84:         (1.0 - (x*x/12.0) *
	vmulsd	%xmm5, %xmm0, %xmm0	 # tmp259, tmp257, tmp261
 # mahjong.c:84:         (1.0 - (x*x/12.0) *
	vsubsd	%xmm0, %xmm18, %xmm0	 # tmp261, tmp344, tmp262
 # mahjong.c:83:         1.0 - (x*x/2.0) *
	vmulsd	%xmm2, %xmm0, %xmm2	 # tmp264, tmp262, tmp266
 # mahjong.c:82:     double result =
	vsubsd	%xmm2, %xmm18, %xmm2	 # tmp266, tmp344, result
 # mahjong.c:87:     return negate ? -result : result;
	vxorpd	.LC10(%rip), %xmm2, %xmm2	 #, result, iftmp.0_63
.L625:
 # mahjong.c:92:     return cos(x-M_PI_2);
	vsubsd	%xmm21, %xmm1, %xmm1	 # tmp342, _15, x
 # mahjong.c:96:     return (f32)cos((double)x);
	vcvtsd2ss	%xmm2, %xmm2, %xmm2	 # iftmp.0_63, _17
	vmovsd	.LC2(%rip), %xmm0	 #, tmp340
 # mahjong.c:63:     while (x > M_PI)
	vcomisd	%xmm16, %xmm1	 # tmp339, x
	jbe	.L663	 #,
	.p2align 4
	.p2align 3
.L615:
 # mahjong.c:64:         x -= 2.0 * M_PI;
	vsubsd	%xmm0, %xmm1, %xmm1	 # tmp340, x, x
 # mahjong.c:63:     while (x > M_PI)
	vcomisd	%xmm16, %xmm1	 # tmp339, x
	ja	.L615	 #,
.L616:
 # mahjong.c:71:     if (x > M_PI / 2)
	vcomisd	%xmm21, %xmm1	 # tmp342, x
	jbe	.L664	 #,
	.p2align 4
	.p2align 3
.L667:
 # mahjong.c:73:         x = M_PI - x;
	vsubsd	%xmm1, %xmm16, %xmm1	 # x, tmp339, x
.L621:
 # mahjong.c:83:         1.0 - (x*x/2.0) *
	vmulsd	%xmm1, %xmm1, %xmm1	 # x, x, _87
 # mahjong.c:85:         (1.0 - (x*x/30.0)));
	vdivsd	%xmm17, %xmm1, %xmm0	 # tmp343, _87, tmp240
 # mahjong.c:84:         (1.0 - (x*x/12.0) *
	vdivsd	%xmm20, %xmm1, %xmm20	 # tmp345, _87, tmp244
 # mahjong.c:85:         (1.0 - (x*x/30.0)));
	vsubsd	%xmm0, %xmm18, %xmm0	 # tmp240, tmp344, tmp242
 # mahjong.c:83:         1.0 - (x*x/2.0) *
	vmulsd	%xmm19, %xmm1, %xmm1	 # tmp346, _87, tmp249
 # mahjong.c:84:         (1.0 - (x*x/12.0) *
	vmulsd	%xmm20, %xmm0, %xmm0	 # tmp244, tmp242, tmp246
 # mahjong.c:84:         (1.0 - (x*x/12.0) *
	vsubsd	%xmm0, %xmm18, %xmm0	 # tmp246, tmp344, tmp247
 # mahjong.c:83:         1.0 - (x*x/2.0) *
	vmulsd	%xmm1, %xmm0, %xmm0	 # tmp249, tmp247, tmp251
 # mahjong.c:82:     double result =
	vsubsd	%xmm0, %xmm18, %xmm0	 # tmp251, tmp344, result
 # mahjong.c:87:     return negate ? -result : result;
	vxorpd	.LC10(%rip), %xmm0, %xmm0	 #, result, iftmp.0_43
.L624:
 # mahjong.c:100:     return (f32)sin((double)x);
	vcvtsd2ss	%xmm0, %xmm0, %xmm0	 # iftmp.0_43, tmp222
 # mahjong.c:1424:     p.z = cy * cp * radius;
	vmulss	%xmm4, %xmm2, %xmm2	 # _23, _17, tmp225
 # mahjong.c:1422:     p.x = sy * cp * radius;
	vmulss	%xmm4, %xmm0, %xmm0	 # _23, tmp222, tmp223
 # mahjong.c:1424:     p.z = cy * cp * radius;
	vmulss	%xmm3, %xmm2, %xmm2	 # radius, tmp225, tmp226
 # mahjong.c:1422:     p.x = sy * cp * radius;
	vunpcklps	%xmm22, %xmm0, %xmm0	 # _20, tmp223, tmp221
 # mahjong.c:1426:     return p;
	vmovss	%xmm2, 8(%rax)	 # tmp226, <retval>.z
 # mahjong.c:1422:     p.x = sy * cp * radius;
	vmulps	%xmm6, %xmm0, %xmm0	 # _374, tmp221, vect__2.1058
 # mahjong.c:1427: }
	vmovups	(%rsp), %xmm6	 #,
 # mahjong.c:1426:     return p;
	vmovlps	%xmm0, (%rax)	 # vect__2.1058, MEM <vector(2) float> [(float *)&<retval>]
 # mahjong.c:1427: }
	addq	$24, %rsp	 #,
	ret	
	.p2align 4
	.p2align 3
.L663:
 # mahjong.c:66:     while (x < -M_PI)
	vmovsd	.LC3(%rip), %xmm5	 #, tmp341
	vcomisd	%xmm1, %xmm5	 # x, tmp341
	jbe	.L616	 #,
	.p2align 4
	.p2align 3
.L618:
 # mahjong.c:67:         x += 2.0 * M_PI;
	vaddsd	%xmm0, %xmm1, %xmm1	 # tmp340, x, x
 # mahjong.c:66:     while (x < -M_PI)
	vcomisd	%xmm1, %xmm5	 # x, tmp341
	ja	.L618	 #,
 # mahjong.c:71:     if (x > M_PI / 2)
	vcomisd	%xmm21, %xmm1	 # tmp342, x
	ja	.L667	 #,
.L664:
 # mahjong.c:76:     else if (x < -M_PI / 2)
	vmovsd	.LC5(%rip), %xmm0	 #, tmp219
	vcomisd	%xmm1, %xmm0	 # x, tmp219
	jbe	.L665	 #,
 # mahjong.c:78:         x = -M_PI - x;
	vmovsd	.LC3(%rip), %xmm0	 #, tmp220
	vsubsd	%xmm1, %xmm0, %xmm1	 # x, tmp220, x
	jmp	.L621	 #
	.p2align 4
	.p2align 3
.L660:
 # mahjong.c:66:     while (x < -M_PI)
	vmovsd	.LC3(%rip), %xmm5	 #, tmp341
	vcomisd	%xmm1, %xmm5	 # _15, tmp341
	jbe	.L605	 #,
	.p2align 4
	.p2align 3
.L607:
 # mahjong.c:67:         x += 2.0 * M_PI;
	vaddsd	%xmm0, %xmm2, %xmm2	 # tmp340, x, x
 # mahjong.c:66:     while (x < -M_PI)
	vcomisd	%xmm2, %xmm5	 # x, tmp341
	ja	.L607	 #,
 # mahjong.c:71:     if (x > M_PI / 2)
	vcomisd	%xmm21, %xmm2	 # tmp342, x
	ja	.L668	 #,
.L661:
 # mahjong.c:76:     else if (x < -M_PI / 2)
	vmovsd	.LC5(%rip), %xmm0	 #, tmp208
	vcomisd	%xmm2, %xmm0	 # x, tmp208
	jbe	.L662	 #,
 # mahjong.c:78:         x = -M_PI - x;
	vmovsd	.LC3(%rip), %xmm0	 #, tmp209
	vsubsd	%xmm2, %xmm0, %xmm2	 # x, tmp209, x
	jmp	.L610	 #
	.p2align 4
	.p2align 3
.L657:
 # mahjong.c:66:     while (x < -M_PI)
	vmovsd	.LC3(%rip), %xmm5	 #, tmp341
	vcomisd	%xmm2, %xmm5	 # x, tmp341
	jbe	.L594	 #,
	.p2align 4
	.p2align 3
.L596:
 # mahjong.c:67:         x += 2.0 * M_PI;
	vaddsd	%xmm0, %xmm2, %xmm2	 # tmp340, x, x
 # mahjong.c:66:     while (x < -M_PI)
	vcomisd	%xmm2, %xmm5	 # x, tmp341
	ja	.L596	 #,
 # mahjong.c:71:     if (x > M_PI / 2)
	vcomisd	%xmm21, %xmm2	 # tmp342, x
	ja	.L669	 #,
.L658:
 # mahjong.c:76:     else if (x < -M_PI / 2)
	vmovsd	.LC5(%rip), %xmm0	 #, tmp198
	vcomisd	%xmm2, %xmm0	 # x, tmp198
	jbe	.L659	 #,
 # mahjong.c:78:         x = -M_PI - x;
	vmovsd	.LC3(%rip), %xmm0	 #, tmp199
	vsubsd	%xmm2, %xmm0, %xmm2	 # x, tmp199, x
	jmp	.L599	 #
	.p2align 4
	.p2align 3
.L654:
 # mahjong.c:66:     while (x < -M_PI)
	vmovsd	.LC3(%rip), %xmm5	 #, tmp341
	vcomisd	%xmm2, %xmm5	 # _21, tmp341
	jbe	.L583	 #,
	.p2align 4
	.p2align 3
.L585:
 # mahjong.c:67:         x += 2.0 * M_PI;
	vaddsd	%xmm0, %xmm4, %xmm4	 # tmp340, x, x
 # mahjong.c:66:     while (x < -M_PI)
	vcomisd	%xmm4, %xmm5	 # x, tmp341
	ja	.L585	 #,
	jmp	.L583	 #
	.p2align 4
	.p2align 3
.L655:
 # mahjong.c:76:     else if (x < -M_PI / 2)
	vmovsd	.LC5(%rip), %xmm0	 #, tmp187
	vcomisd	%xmm4, %xmm0	 # x, tmp187
	jbe	.L656	 #,
 # mahjong.c:78:         x = -M_PI - x;
	vmovsd	.LC3(%rip), %xmm0	 #, tmp188
	vsubsd	%xmm4, %xmm0, %xmm4	 # x, tmp188, x
	jmp	.L588	 #
	.p2align 4
	.p2align 3
.L662:
 # mahjong.c:83:         1.0 - (x*x/2.0) *
	vmulsd	%xmm2, %xmm2, %xmm2	 # x, x, _140
 # mahjong.c:85:         (1.0 - (x*x/30.0)));
	vdivsd	%xmm17, %xmm2, %xmm0	 # tmp343, _140, tmp270
 # mahjong.c:84:         (1.0 - (x*x/12.0) *
	vdivsd	%xmm20, %xmm2, %xmm5	 # tmp345, _140, tmp274
 # mahjong.c:85:         (1.0 - (x*x/30.0)));
	vsubsd	%xmm0, %xmm18, %xmm0	 # tmp270, tmp344, tmp272
 # mahjong.c:83:         1.0 - (x*x/2.0) *
	vmulsd	%xmm19, %xmm2, %xmm2	 # tmp346, _140, tmp279
 # mahjong.c:84:         (1.0 - (x*x/12.0) *
	vmulsd	%xmm5, %xmm0, %xmm0	 # tmp274, tmp272, tmp276
 # mahjong.c:84:         (1.0 - (x*x/12.0) *
	vsubsd	%xmm0, %xmm18, %xmm0	 # tmp276, tmp344, tmp277
 # mahjong.c:83:         1.0 - (x*x/2.0) *
	vmulsd	%xmm2, %xmm0, %xmm2	 # tmp279, tmp277, tmp281
 # mahjong.c:82:     double result =
	vsubsd	%xmm2, %xmm18, %xmm2	 # tmp281, tmp344, iftmp.0_63
	jmp	.L625	 #
	.p2align 4
	.p2align 3
.L665:
 # mahjong.c:83:         1.0 - (x*x/2.0) *
	vmulsd	%xmm1, %xmm1, %xmm1	 # x, x, _22
 # mahjong.c:85:         (1.0 - (x*x/30.0)));
	vdivsd	%xmm17, %xmm1, %xmm0	 # tmp343, _22, tmp227
 # mahjong.c:84:         (1.0 - (x*x/12.0) *
	vdivsd	%xmm20, %xmm1, %xmm20	 # tmp345, _22, tmp231
 # mahjong.c:85:         (1.0 - (x*x/30.0)));
	vsubsd	%xmm0, %xmm18, %xmm0	 # tmp227, tmp344, tmp229
 # mahjong.c:83:         1.0 - (x*x/2.0) *
	vmulsd	%xmm19, %xmm1, %xmm1	 # tmp346, _22, tmp236
 # mahjong.c:84:         (1.0 - (x*x/12.0) *
	vmulsd	%xmm20, %xmm0, %xmm0	 # tmp231, tmp229, tmp233
 # mahjong.c:84:         (1.0 - (x*x/12.0) *
	vsubsd	%xmm0, %xmm18, %xmm0	 # tmp233, tmp344, tmp234
 # mahjong.c:83:         1.0 - (x*x/2.0) *
	vmulsd	%xmm1, %xmm0, %xmm0	 # tmp236, tmp234, tmp238
 # mahjong.c:82:     double result =
	vsubsd	%xmm0, %xmm18, %xmm0	 # tmp238, tmp344, iftmp.0_43
	jmp	.L624	 #
	.p2align 4
	.p2align 3
.L656:
 # mahjong.c:83:         1.0 - (x*x/2.0) *
	vmulsd	%xmm4, %xmm4, %xmm4	 # x, x, _184
 # mahjong.c:85:         (1.0 - (x*x/30.0)));
	vmovsd	.LC7(%rip), %xmm18	 #, tmp344
 # mahjong.c:85:         (1.0 - (x*x/30.0)));
	vmovsd	.LC6(%rip), %xmm17	 #, tmp343
 # mahjong.c:84:         (1.0 - (x*x/12.0) *
	vmovsd	.LC8(%rip), %xmm20	 #, tmp345
 # mahjong.c:85:         (1.0 - (x*x/30.0)));
	vdivsd	%xmm17, %xmm4, %xmm0	 # tmp343, _184, tmp326
 # mahjong.c:84:         (1.0 - (x*x/12.0) *
	vdivsd	%xmm20, %xmm4, %xmm5	 # tmp345, _184, tmp330
 # mahjong.c:85:         (1.0 - (x*x/30.0)));
	vsubsd	%xmm0, %xmm18, %xmm0	 # tmp326, tmp344, tmp328
 # mahjong.c:83:         1.0 - (x*x/2.0) *
	vmovsd	.LC9(%rip), %xmm19	 #, tmp346
 # mahjong.c:84:         (1.0 - (x*x/12.0) *
	vmulsd	%xmm5, %xmm0, %xmm0	 # tmp330, tmp328, tmp332
 # mahjong.c:83:         1.0 - (x*x/2.0) *
	vmulsd	%xmm19, %xmm4, %xmm4	 # tmp346, _184, tmp335
 # mahjong.c:84:         (1.0 - (x*x/12.0) *
	vsubsd	%xmm0, %xmm18, %xmm0	 # tmp332, tmp344, tmp333
 # mahjong.c:83:         1.0 - (x*x/2.0) *
	vmulsd	%xmm4, %xmm0, %xmm4	 # tmp335, tmp333, tmp337
 # mahjong.c:82:     double result =
	vsubsd	%xmm4, %xmm18, %xmm4	 # tmp337, tmp344, iftmp.0_103
	jmp	.L627	 #
	.p2align 4
	.p2align 3
.L659:
 # mahjong.c:83:         1.0 - (x*x/2.0) *
	vmulsd	%xmm2, %xmm2, %xmm2	 # x, x, _162
 # mahjong.c:85:         (1.0 - (x*x/30.0)));
	vdivsd	%xmm17, %xmm2, %xmm22	 # tmp343, _162, tmp298
 # mahjong.c:84:         (1.0 - (x*x/12.0) *
	vdivsd	%xmm20, %xmm2, %xmm0	 # tmp345, _162, tmp302
 # mahjong.c:85:         (1.0 - (x*x/30.0)));
	vsubsd	%xmm22, %xmm18, %xmm22	 # tmp298, tmp344, tmp300
 # mahjong.c:83:         1.0 - (x*x/2.0) *
	vmulsd	%xmm19, %xmm2, %xmm2	 # tmp346, _162, tmp307
 # mahjong.c:84:         (1.0 - (x*x/12.0) *
	vmulsd	%xmm0, %xmm22, %xmm22	 # tmp302, tmp300, tmp304
 # mahjong.c:84:         (1.0 - (x*x/12.0) *
	vsubsd	%xmm22, %xmm18, %xmm22	 # tmp304, tmp344, tmp305
 # mahjong.c:83:         1.0 - (x*x/2.0) *
	vmulsd	%xmm2, %xmm22, %xmm22	 # tmp307, tmp305, tmp309
 # mahjong.c:82:     double result =
	vsubsd	%xmm22, %xmm18, %xmm22	 # tmp309, tmp344, iftmp.0_83
	jmp	.L626	 #
	.seh_endproc
	.p2align 4
	.globl	look_at_yx
	.def	look_at_yx;	.scl	2;	.type	32;	.endef
	.seh_proc	look_at_yx
look_at_yx:
	subq	$24, %rsp	 #,
	.seh_stackalloc	24
	vmovups	%xmm6, (%rsp)	 #,
	.seh_savexmm	%xmm6, 0
	.seh_endprologue
 # mahjong.c:110:     if(f < 0.0f) { return -f; }
	vxorps	%xmm2, %xmm2, %xmm2	 # tmp130
 # mahjong.c:1431:     float dx = target.x - position.x;
	vmovss	(%r8), %xmm0	 # target.x, target.x
	vsubss	(%rdx), %xmm0, %xmm0	 # position.x, target.x, dx
 # mahjong.c:124:     f32 abs_y = fabsf(y) + 1e-10f;
	vmovss	.LC14(%rip), %xmm16	 #, tmp182
 # mahjong.c:1430: {
	movq	%rdx, %rax	 # tmp184, tmp125
 # mahjong.c:111:     return f;
	vxorps	.LC12(%rip), %xmm0, %xmm5	 #, dx, tmp186
 # mahjong.c:1433:     float dz = target.z - position.z;
	vmovss	8(%r8), %xmm4	 # target.z, target.z
	vsubss	8(%rdx), %xmm4, %xmm4	 # position.z, target.z, dz
 # mahjong.c:1432:     float dy = target.y - position.y;
	vmovss	4(%r8), %xmm3	 # target.y, target.y
	vsubss	4(%rdx), %xmm3, %xmm3	 # position.y, target.y, dy
 # mahjong.c:111:     return f;
	vcmpltss	%xmm2, %xmm0, %xmm2	 #, tmp130, dx, tmp188
	vblendvps	%xmm2, %xmm5, %xmm0, %xmm1	 # tmp188, tmp186, tmp187, _47
 # mahjong.c:127:     if (x >= 0.0f)
	vxorps	%xmm5, %xmm5, %xmm5	 # tmp133
 # mahjong.c:124:     f32 abs_y = fabsf(y) + 1e-10f;
	vaddss	%xmm16, %xmm1, %xmm1	 # tmp182, _47, abs_y
 # mahjong.c:127:     if (x >= 0.0f)
	vcomiss	%xmm5, %xmm4	 # tmp133, dz
 # mahjong.c:129:         f32 r = (x - abs_y) / (x + abs_y);
	vaddss	%xmm1, %xmm4, %xmm2	 # abs_y, dz, _85
 # mahjong.c:127:     if (x >= 0.0f)
	jb	.L691	 #,
 # mahjong.c:129:         f32 r = (x - abs_y) / (x + abs_y);
	vsubss	%xmm1, %xmm4, %xmm1	 # abs_y, dz, tmp134
 # mahjong.c:129:         f32 r = (x - abs_y) / (x + abs_y);
	vdivss	%xmm2, %xmm1, %xmm1	 # _85, tmp134, r
 # mahjong.c:130:         angle = PI_4 - PI_4 * r;
	vmovss	.LC15(%rip), %xmm2	 #, tmp181
	vmulss	%xmm2, %xmm1, %xmm1	 # tmp181, r, tmp136
 # mahjong.c:130:         angle = PI_4 - PI_4 * r;
	vsubss	%xmm1, %xmm2, %xmm1	 # tmp136, tmp181, angle
.L675:
 # mahjong.c:138:     return (y < 0.0f) ? -angle : angle;
	vxorps	%xmm5, %xmm5, %xmm5	 # tmp144
 # mahjong.c:1437:     float horizontal = my_sqrt(dx * dx + dz * dz);
	vmulss	%xmm4, %xmm4, %xmm4	 # dz, dz, tmp149
 # mahjong.c:138:     return (y < 0.0f) ? -angle : angle;
	vmovaps	%xmm1, %xmm6	 # angle, tmp190
	vxorps	.LC12(%rip), %xmm1, %xmm1	 #, angle, tmp189
 # mahjong.c:151: 	y  = * ( f32 * ) &i;
	movl	$1597463007, %edx	 #, tmp152
 # mahjong.c:138:     return (y < 0.0f) ? -angle : angle;
	vcmpltss	%xmm5, %xmm0, %xmm5	 #, tmp144, dx, tmp191
 # mahjong.c:1437:     float horizontal = my_sqrt(dx * dx + dz * dz);
	vmulss	%xmm0, %xmm0, %xmm0	 # dx, dx, tmp148
 # mahjong.c:1437:     float horizontal = my_sqrt(dx * dx + dz * dz);
	vaddss	%xmm4, %xmm0, %xmm0	 # tmp149, tmp148, _10
 # mahjong.c:138:     return (y < 0.0f) ? -angle : angle;
	vblendvps	%xmm5, %xmm1, %xmm6, %xmm1	 # tmp191, tmp189, tmp190, angle
 # mahjong.c:111:     return f;
	vxorps	.LC12(%rip), %xmm3, %xmm5	 #, dy, tmp195
 # mahjong.c:1435:     cam->rotation.y = fast_atan2(dx, dz);
	vmovss	%xmm1, 16(%rcx)	 # angle, cam_18(D)->rotation.y
 # mahjong.c:152: 	y  = y * ( threehalfs - ( x2 * y * y ) ); 
	vmovss	.LC23(%rip), %xmm1	 #, tmp158
 # mahjong.c:150: 	i  = 0x5f3759df - ( i >> 1 );
	vmovd	%xmm0, %r8d	 # _10, tmp150
 # mahjong.c:147: 	x2 = number * 0.5F;
	vmulss	.LC22(%rip), %xmm0, %xmm0	 #, _10, x2
 # mahjong.c:150: 	i  = 0x5f3759df - ( i >> 1 );
	sarl	%r8d	 # tmp150
 # mahjong.c:151: 	y  = * ( f32 * ) &i;
	subl	%r8d, %edx	 # tmp150, tmp152
	vmovd	%edx, %xmm4	 # tmp152, _25
 # mahjong.c:152: 	y  = y * ( threehalfs - ( x2 * y * y ) ); 
	vmulss	%xmm4, %xmm0, %xmm0	 # _25, x2, tmp155
 # mahjong.c:152: 	y  = y * ( threehalfs - ( x2 * y * y ) ); 
	vmulss	%xmm4, %xmm0, %xmm0	 # _25, tmp155, tmp156
 # mahjong.c:152: 	y  = y * ( threehalfs - ( x2 * y * y ) ); 
	vsubss	%xmm0, %xmm1, %xmm0	 # tmp156, tmp158, tmp157
 # mahjong.c:158:     return 1.0f / fast_inv_sqrt(i);
	vmovss	.LC17(%rip), %xmm1	 #, tmp160
 # mahjong.c:152: 	y  = y * ( threehalfs - ( x2 * y * y ) ); 
	vmulss	%xmm4, %xmm0, %xmm0	 # _25, tmp157, tmp159
 # mahjong.c:110:     if(f < 0.0f) { return -f; }
	vxorps	%xmm4, %xmm4, %xmm4	 # tmp161
 # mahjong.c:111:     return f;
	vcmpltss	%xmm4, %xmm3, %xmm4	 #, tmp161, dy, tmp197
 # mahjong.c:158:     return 1.0f / fast_inv_sqrt(i);
	vdivss	%xmm0, %xmm1, %xmm1	 # tmp159, tmp160, _30
 # mahjong.c:111:     return f;
	vblendvps	%xmm4, %xmm5, %xmm3, %xmm0	 # tmp197, tmp195, tmp196, _31
 # mahjong.c:127:     if (x >= 0.0f)
